(lp1
S'python_data'
p2
a.ccopy_reg
_reconstructor
p1
(cSU2.eval.design
Design
p2
c__builtin__
object
p3
NtRp4
(dp5
S'files'
p6
cSU2.util.ordered_bunch
OrderedBunch
p7
((lp8
(lp9
S'MESH'
p10
aS'mesh_NACA0012_inv_deform.su2'
p11
aa(lp12
S'DIRECT'
p13
aS'solution_flow.dat'
p14
aa(lp15
S'ADJOINT_DRAG'
p16
aS'solution_adj_cd.dat'
p17
aatRp18
(dp19
S'_initialized'
p20
I01
sbsS'funcs'
p21
g7
((lp22
(lp23
S'LIFT'
p24
aF0.066812844900000001
aa(lp25
S'DRAG'
p26
aF0.00045170327999999999
aa(lp27
S'SIDEFORCE'
p28
aF0
aa(lp29
S'MOMENT_X'
p30
aF0
aa(lp31
S'MOMENT_Y'
p32
aF0
aa(lp33
S'MOMENT_Z'
p34
aF-0.036742452600000003
aa(lp35
S'FORCE_X'
p36
aF-0.00100591874
aa(lp37
S'FORCE_Y'
p38
aF0.066806799099999994
aa(lp39
S'FORCE_Z'
p40
aF0
aa(lp41
S'EFFICIENCY'
p42
aF147.913128
aatRp43
(dp44
g20
I01
sbsS'filename'
p45
S'design.pkl'
p46
sS'state'
p47
cSU2.io.state
State
p48
((lp49
(lp50
S'FUNCTIONS'
p51
ag43
aa(lp52
S'GRADIENTS'
p53
ag7
((ltRp54
(dp55
g20
I01
sbaa(lp56
S'VARIABLES'
p57
ag7
((lp58
(lp59
S'DV_VALUE_NEW'
p60
a(lp61
F0.00027641559821989941
aF-9.1031356840106458e-05
aF-0.00033115200311429097
aF-0.00047603920085788587
aF-0.00052275617053682011
aF-0.0004573776103443512
aF-0.0002726118366274196
aF1.7757406239568765e-05
aF0.00037076737441411417
aF0.00071817086011489171
aF0.00098646096528900561
aF0.00112967887470683
aF0.0011590700079880361
aF0.0011443141198011768
aF0.001172388470598676
aF0.0012923810950990406
aF0.0015137492222765051
aF0.0018827855764544225
aF0.0026157487229179341
aF-0.0026753430457576175
aF-0.0034934695980562576
aF-0.0035174752889536574
aF-0.0031756426595726645
aF-0.0026371847952748342
aF-0.0020010977709493541
aF-0.0013449801341382051
aF-0.00073457389155872179
aF-0.0002217037563924102
aF0.00015944601057189776
aF0.00039271297508773362
aF0.00047491201167859073
aF0.00040608728995486547
aF0.00018165838599847183
aF-0.00019721823424077357
aF-0.00067972417919474415
aF-0.0011382449302295759
aF-0.0015194986375169988
aF-0.0021171022359271281
aaatRp62
(dp63
g20
I01
sbaa(lp64
S'FILES'
p65
ag18
aa(lp66
S'HISTORY'
p67
ag7
((lp68
(lp69
g13
ag7
((lp70
(lp71
S'ITERATION'
p72
a(lp73
F4798
aF4799
aF4800
aF4801
aF4802
aF4803
aF4804
aF4805
aF4806
aF4807
aF4808
aF4809
aF4810
aF4811
aF4812
aF4813
aF4814
aF4815
aF4816
aF4817
aF4818
aF4819
aF4820
aF4821
aF4822
aF4823
aF4824
aF4825
aF4826
aF4827
aF4828
aF4829
aF4830
aF4831
aF4832
aF4833
aF4834
aF4835
aF4836
aF4837
aF4838
aF4839
aF4840
aF4841
aF4842
aF4843
aF4844
aF4845
aF4846
aF4847
aF4848
aF4849
aF4850
aF4851
aF4852
aF4853
aF4854
aF4855
aF4856
aF4857
aF4858
aF4859
aF4860
aF4861
aF4862
aF4863
aF4864
aF4865
aF4866
aF4867
aF4868
aF4869
aF4870
aF4871
aF4872
aF4873
aF4874
aF4875
aF4876
aF4877
aF4878
aF4879
aF4880
aF4881
aF4882
aF4883
aF4884
aF4885
aF4886
aF4887
aF4888
aF4889
aF4890
aF4891
aF4892
aF4893
aF4894
aF4895
aF4896
aF4897
aF4898
aF4899
aF4900
aF4901
aF4902
aF4903
aF4904
aF4905
aF4906
aF4907
aF4908
aF4909
aF4910
aF4911
aF4912
aF4913
aF4914
aF4915
aF4916
aF4917
aF4918
aF4919
aF4920
aF4921
aF4922
aF4923
aF4924
aF4925
aF4926
aF4927
aF4928
aF4929
aF4930
aF4931
aF4932
aF4933
aF4934
aF4935
aF4936
aF4937
aF4938
aF4939
aF4940
aF4941
aF4942
aF4943
aF4944
aF4945
aF4946
aF4947
aF4948
aF4949
aF4950
aF4951
aF4952
aF4953
aF4954
aF4955
aF4956
aF4957
aF4958
aF4959
aF4960
aF4961
aF4962
aF4963
aF4964
aF4965
aF4966
aF4967
aF4968
aF4969
aF4970
aF4971
aF4972
aF4973
aF4974
aF4975
aF4976
aF4977
aF4978
aF4979
aF4980
aF4981
aF4982
aF4983
aF4984
aF4985
aF4986
aF4987
aF4988
aF4989
aF4990
aF4991
aF4992
aF4993
aF4994
aF4995
aF4996
aF4997
aF4998
aF4999
aF5000
aF5001
aF5002
aF5003
aF5004
aF5005
aF5006
aF5007
aF5008
aF5009
aF5010
aF5011
aF5012
aF5013
aF5014
aF5015
aF5016
aF5017
aF5018
aF5019
aF5020
aF5021
aF5022
aF5023
aF5024
aF5025
aF5026
aF5027
aF5028
aF5029
aF5030
aF5031
aF5032
aF5033
aF5034
aF5035
aF5036
aF5037
aF5038
aF5039
aF5040
aF5041
aF5042
aF5043
aF5044
aF5045
aF5046
aF5047
aF5048
aF5049
aF5050
aF5051
aF5052
aF5053
aF5054
aF5055
aF5056
aF5057
aF5058
aF5059
aF5060
aF5061
aF5062
aF5063
aF5064
aF5065
aF5066
aF5067
aF5068
aF5069
aF5070
aF5071
aF5072
aF5073
aF5074
aF5075
aF5076
aF5077
aF5078
aF5079
aF5080
aF5081
aF5082
aF5083
aF5084
aF5085
aF5086
aF5087
aF5088
aF5089
aF5090
aF5091
aF5092
aF5093
aF5094
aF5095
aF5096
aF5097
aF5098
aF5099
aF5100
aF5101
aF5102
aF5103
aF5104
aF5105
aF5106
aF5107
aF5108
aF5109
aF5110
aF5111
aF5112
aF5113
aF5114
aF5115
aF5116
aF5117
aF5118
aF5119
aF5120
aF5121
aF5122
aF5123
aF5124
aF5125
aF5126
aF5127
aF5128
aF5129
aF5130
aF5131
aF5132
aF5133
aF5134
aF5135
aF5136
aF5137
aF5138
aF5139
aF5140
aF5141
aF5142
aF5143
aF5144
aF5145
aF5146
aF5147
aF5148
aF5149
aF5150
aF5151
aF5152
aF5153
aF5154
aF5155
aF5156
aF5157
aF5158
aF5159
aF5160
aF5161
aF5162
aF5163
aF5164
aaa(lp74
g24
a(lp75
F0.066733157500000001
aF0.066737013900000003
aF0.066739712000000007
aF0.066742923999999995
aF0.066746583499999998
aF0.066750705699999996
aF0.066754860299999996
aF0.066758769300000007
aF0.066762324999999997
aF0.066765486299999996
aF0.066768289499999994
aF0.066770797100000001
aF0.066773068800000002
aF0.066775142499999995
aF0.066777034400000004
aF0.066778754800000006
aF0.066780315600000001
aF0.066781732900000002
aF0.066783024699999999
aF0.066784207799999995
aF0.066785293999999995
aF0.0667862912
aF0.066787205099999997
aF0.066788040899999998
aF0.066788805699999995
aF0.066789509799999994
aF0.066790167299999995
aF0.066790795900000005
aF0.066791414699999996
aF0.066792035499999999
aF0.066792680899999998
aF0.066793467199999998
aF0.066794429700000005
aF0.066795464900000004
aF0.066796531100000001
aF0.066797596099999995
aF0.0667986406
aF0.066799650099999996
aF0.066800614999999994
aF0.066801529700000001
aF0.066802390899999994
aF0.066803195400000001
aF0.066803939399999998
aF0.066804621499999994
aF0.066805243799999997
aF0.066805811600000001
aF0.066806330299999994
aF0.066806805999999996
aF0.066807244399999993
aF0.066807650699999999
aF0.066808029500000005
aF0.066808384900000004
aF0.066808720099999996
aF0.066809038000000001
aF0.066809340699999997
aF0.066809629999999995
aF0.066809907000000002
aF0.066810172799999998
aF0.066810427899999997
aF0.066810673000000001
aF0.066810908200000005
aF0.0668111339
aF0.0668113501
aF0.066811556800000005
aF0.066811753700000004
aF0.066811939900000006
aF0.066812112100000001
aF0.066812262100000006
aF0.066812381800000001
aF0.066812471700000001
aF0.066812537000000005
aF0.066812583199999998
aF0.066812616199999994
aF0.066812642199999994
aF0.066812664499999994
aF0.066812685999999996
aF0.066812708200000001
aF0.066812729799999998
aF0.066812749599999999
aF0.066812766999999995
aF0.066812781599999996
aF0.066812793499999995
aF0.066812803399999995
aF0.066812812299999996
aF0.066812820699999997
aF0.066812829000000004
aF0.066812837200000003
aF0.066812845100000004
aF0.066812852300000003
aF0.066812858399999994
aF0.066812863200000003
aF0.066812866400000004
aF0.066812867900000003
aF0.066812867400000003
aF0.066812864700000002
aF0.066812859700000005
aF0.066812851899999998
aF0.066812840900000003
aF0.066812826899999997
aF0.0668128105
aF0.066812792100000004
aF0.066812774000000005
aF0.066812757900000005
aF0.066812744800000004
aF0.066812733900000004
aF0.066812725099999998
aF0.066812718100000001
aF0.066812712799999993
aF0.066812709100000006
aF0.066812706900000005
aF0.066812705999999999
aF0.066812705999999999
aF0.066812706499999999
aF0.066812706799999996
aF0.066812706299999997
aF0.066812704599999995
aF0.066812701899999993
aF0.066812699200000006
aF0.066812697500000004
aF0.066812697700000007
aF0.066812699599999997
aF0.066812703299999998
aF0.066812709200000001
aF0.066812717300000005
aF0.066812727099999997
aF0.066812738499999996
aF0.066812751599999998
aF0.066812766699999998
aF0.066812783400000006
aF0.066812801300000002
aF0.066812820300000006
aF0.066812838700000002
aF0.066812855099999999
aF0.066812873199999998
aF0.066812891799999996
aF0.066812909899999995
aF0.066812926800000005
aF0.066812941799999997
aF0.066812955500000007
aF0.066812967400000006
aF0.066812977699999998
aF0.066812986899999996
aF0.066812995
aF0.066813001900000002
aF0.066813007800000004
aF0.066813012699999993
aF0.066813016899999994
aF0.066813020299999998
aF0.066813022900000005
aF0.066813024700000001
aF0.066813025799999995
aF0.0668130262
aF0.066813025900000003
aF0.066813024999999998
aF0.066813023599999993
aF0.066813021700000003
aF0.066813019500000001
aF0.066813017000000002
aF0.066813014200000007
aF0.0668130111
aF0.066813007999999993
aF0.066813004600000003
aF0.066813000999999997
aF0.066812997200000002
aF0.066812993299999998
aF0.066812989899999994
aF0.066812986800000002
aF0.066812983000000006
aF0.066812979499999994
aF0.066812976100000004
aF0.066812972600000006
aF0.066812969200000003
aF0.066812965700000004
aF0.066812962500000003
aF0.066812959500000005
aF0.066812956600000001
aF0.066812953699999997
aF0.066812951100000004
aF0.066812948400000002
aF0.066812945700000001
aF0.066812943
aF0.066812940400000007
aF0.066812937599999997
aF0.066812935000000004
aF0.066812932300000002
aF0.066812929699999996
aF0.066812927100000002
aF0.066812924699999998
aF0.066812922400000002
aF0.066812919999999998
aF0.066812917700000002
aF0.0668129155
aF0.066812913299999999
aF0.066812911099999997
aF0.066812908899999995
aF0.066812906800000002
aF0.066812904800000003
aF0.066812902800000004
aF0.0668129009
aF0.066812898999999995
aF0.066812897199999999
aF0.066812895499999997
aF0.066812893799999995
aF0.066812892200000001
aF0.0668128905
aF0.066812889
aF0.066812887500000001
aF0.066812886000000002
aF0.066812884599999997
aF0.066812883200000006
aF0.066812881899999996
aF0.066812880599999999
aF0.066812879300000003
aF0.0668128781
aF0.066812876899999998
aF0.066812875800000004
aF0.066812874699999997
aF0.066812873600000003
aF0.066812872600000003
aF0.066812871600000004
aF0.066812870600000004
aF0.066812869699999999
aF0.066812868799999994
aF0.066812867900000003
aF0.066812867100000006
aF0.066812866200000001
aF0.066812865400000004
aF0.066812864599999994
aF0.066812863799999997
aF0.066812863099999995
aF0.066812862299999998
aF0.066812861599999995
aF0.066812860900000007
aF0.066812860200000004
aF0.066812859500000002
aF0.066812858899999994
aF0.0668128583
aF0.066812857599999997
aF0.066812857000000003
aF0.066812856500000004
aF0.066812855899999996
aF0.066812855300000001
aF0.066812854800000002
aF0.066812854300000002
aF0.066812853800000002
aF0.066812853300000002
aF0.066812852899999997
aF0.066812852399999997
aF0.066812852000000006
aF0.066812851600000001
aF0.066812851199999995
aF0.066812850800000004
aF0.066812850399999998
aF0.066812850100000001
aF0.066812849800000004
aF0.066812849399999999
aF0.066812849100000002
aF0.066812848800000005
aF0.066812848499999994
aF0.066812848300000005
aF0.066812847999999994
aF0.066812847800000005
aF0.066812847600000003
aF0.066812847300000006
aF0.066812847199999997
aF0.066812846999999995
aF0.066812846800000006
aF0.066812846699999998
aF0.066812846499999995
aF0.066812846400000001
aF0.066812846300000006
aF0.066812846100000003
aF0.066812845999999995
aF0.066812845900000001
aF0.066812845800000006
aF0.066812845699999998
aF0.066812845600000004
aF0.066812845499999995
aF0.066812845400000001
aF0.066812845400000001
aF0.066812845300000007
aF0.066812845199999998
aF0.066812845100000004
aF0.066812845100000004
aF0.066812844999999996
aF0.066812844999999996
aF0.066812844900000001
aF0.066812844900000001
aF0.066812844800000007
aF0.066812844800000007
aF0.066812844699999999
aF0.066812844699999999
aF0.066812844699999999
aF0.066812844600000004
aF0.066812844600000004
aF0.066812844600000004
aF0.066812844600000004
aF0.066812844600000004
aF0.066812844499999996
aF0.066812844499999996
aF0.066812844499999996
aF0.066812844499999996
aF0.066812844499999996
aF0.066812844499999996
aF0.066812844499999996
aF0.066812844499999996
aF0.066812844499999996
aF0.066812844499999996
aF0.066812844499999996
aF0.066812844499999996
aF0.066812844499999996
aF0.066812844499999996
aF0.066812844600000004
aF0.066812844600000004
aF0.066812844600000004
aF0.066812844600000004
aF0.066812844600000004
aF0.066812844600000004
aF0.066812844600000004
aF0.066812844600000004
aF0.066812844600000004
aF0.066812844600000004
aF0.066812844699999999
aF0.066812844699999999
aF0.066812844699999999
aF0.066812844699999999
aF0.066812844699999999
aF0.066812844699999999
aF0.066812844699999999
aF0.066812844699999999
aF0.066812844699999999
aF0.066812844699999999
aF0.066812844800000007
aF0.066812844800000007
aF0.066812844800000007
aF0.066812844800000007
aF0.066812844800000007
aF0.066812844800000007
aF0.066812844800000007
aF0.066812844800000007
aF0.066812844800000007
aF0.066812844800000007
aF0.066812844800000007
aF0.066812844800000007
aF0.066812844800000007
aF0.066812844800000007
aF0.066812844800000007
aF0.066812844800000007
aF0.066812844800000007
aF0.066812844900000001
aF0.066812844900000001
aF0.066812844900000001
aF0.066812844900000001
aF0.066812844900000001
aF0.066812844900000001
aF0.066812844900000001
aF0.066812844900000001
aF0.066812844900000001
aF0.066812844900000001
aF0.066812844900000001
aF0.066812844900000001
aF0.066812844900000001
aF0.066812844900000001
aF0.066812844900000001
aF0.066812844900000001
aF0.066812844900000001
aF0.066812844900000001
aaa(lp76
g26
a(lp77
F0.000439291696
aF0.00044348972400000002
aF0.00044504704599999999
aF0.00044639518000000002
aF0.00044743747099999998
aF0.00044815687
aF0.00044875807399999998
aF0.00044926398200000002
aF0.00044966736400000001
aF0.00044999371300000001
aF0.00045025567100000002
aF0.000450454496
aF0.00045059615099999999
aF0.00045069530899999999
aF0.00045076621199999998
aF0.00045081790700000001
aF0.00045085573699999999
aF0.000450883275
aF0.00045090318500000002
aF0.000450917937
aF0.00045092992199999998
aF0.00045094162100000002
aF0.00045095582700000001
aF0.00045097568399999998
aF0.00045100462700000001
aF0.00045104619999999999
aF0.00045110367600000002
aF0.00045117958899999999
aF0.00045127516999999998
aF0.00045138878699999999
aF0.000451504932
aF0.00045160556300000002
aF0.00045168935300000002
aF0.00045176809500000002
aF0.000451833992
aF0.00045188270199999998
aF0.00045192429499999999
aF0.00045196696
aF0.00045200616600000001
aF0.00045203578100000001
aF0.00045205586699999999
aF0.00045206841000000001
aF0.00045207366899999998
aF0.00045207200200000002
aF0.00045206508099999998
aF0.00045205469300000001
aF0.00045204216399999999
aF0.000452028717
aF0.00045201543999999998
aF0.00045200305099999999
aF0.00045199194500000002
aF0.000451982304
aF0.00045197411499999998
aF0.000451967191
aF0.00045196125
aF0.000451955971
aF0.00045195102099999999
aF0.00045194607500000002
aF0.00045194083399999999
aF0.000451935025
aF0.00045192840000000001
aF0.000451920739
aF0.00045191186100000002
aF0.00045190164800000001
aF0.000451890092
aF0.000451877434
aF0.00045186419799999998
aF0.00045185038299999999
aF0.00045183475899999997
aF0.00045181800500000002
aF0.00045180184
aF0.00045178665200000002
aF0.00045177252000000001
aF0.00045175917599999998
aF0.00045174662100000001
aF0.00045173529300000001
aF0.00045172531700000002
aF0.00045171655300000002
aF0.00045170897000000002
aF0.000451702598
aF0.00045169745899999999
aF0.00045169366500000003
aF0.00045169134800000001
aF0.00045169053200000002
aF0.00045169108399999999
aF0.00045169272900000003
aF0.00045169510300000003
aF0.00045169782000000001
aF0.00045170051900000002
aF0.00045170289999999999
aF0.00045170475100000002
aF0.00045170595599999997
aF0.000451706493
aF0.00045170641299999999
aF0.000451705815
aF0.00045170482200000001
aF0.00045170355700000002
aF0.00045170212999999997
aF0.00045170062900000001
aF0.00045169912799999999
aF0.000451697755
aF0.00045169671699999997
aF0.00045169608500000001
aF0.00045169560900000001
aF0.00045169502400000002
aF0.00045169430400000002
aF0.00045169355
aF0.000451692898
aF0.000451692492
aF0.00045169245499999998
aF0.00045169285500000001
aF0.00045169370399999998
aF0.00045169494200000002
aF0.00045169640299999998
aF0.000451697824
aF0.00045169897300000001
aF0.00045169982199999998
aF0.00045170050099999998
aF0.00045170106300000001
aF0.00045170135800000002
aF0.00045170127299999998
aF0.00045170094000000001
aF0.00045170051099999999
aF0.00045170000500000001
aF0.00045169942200000001
aF0.00045169893899999999
aF0.00045169873799999998
aF0.00045169886600000001
aF0.00045169930399999999
aF0.000451700101
aF0.00045170127499999998
aF0.00045170229800000001
aF0.00045170347099999998
aF0.00045170474599999998
aF0.00045170599499999998
aF0.00045170691499999999
aF0.00045170764200000001
aF0.000451708119
aF0.00045170836899999998
aF0.000451708351
aF0.000451708093
aF0.00045170773700000001
aF0.00045170731600000001
aF0.00045170682199999998
aF0.00045170632600000001
aF0.000451705867
aF0.00045170546900000002
aF0.000451705122
aF0.00045170482599999999
aF0.00045170457700000001
aF0.00045170435900000001
aF0.00045170415600000001
aF0.000451703956
aF0.00045170375399999999
aF0.00045170355099999999
aF0.00045170334799999999
aF0.00045170315300000001
aF0.00045170297200000003
aF0.00045170281699999999
aF0.00045170269200000001
aF0.00045170260399999998
aF0.00045170255200000002
aF0.00045170252400000003
aF0.00045170249700000003
aF0.00045170246000000001
aF0.00045170252500000002
aF0.00045170252199999998
aF0.00045170248700000001
aF0.00045170244700000001
aF0.00045170248500000002
aF0.00045170241399999998
aF0.00045170235799999999
aF0.000451702326
aF0.00045170234199999999
aF0.000451702367
aF0.00045170242599999998
aF0.00045170252600000002
aF0.00045170264099999999
aF0.00045170274600000001
aF0.000451702842
aF0.00045170291900000002
aF0.000451702965
aF0.00045170298199999999
aF0.000451702978
aF0.00045170295799999997
aF0.000451702923
aF0.000451702897
aF0.000451702884
aF0.00045170287499999998
aF0.00045170287199999999
aF0.00045170287900000002
aF0.00045170288599999999
aF0.00045170289100000002
aF0.00045170289899999999
aF0.00045170290500000002
aF0.00045170290400000003
aF0.00045170290500000002
aF0.000451702911
aF0.00045170291
aF0.00045170290299999998
aF0.00045170290600000002
aF0.00045170291800000002
aF0.00045170291900000002
aF0.00045170291399999999
aF0.00045170292100000001
aF0.00045170293400000001
aF0.000451702937
aF0.00045170293500000001
aF0.00045170294199999998
aF0.00045170295399999999
aF0.00045170296200000001
aF0.000451702966
aF0.00045170297500000001
aF0.00045170298900000001
aF0.00045170300000000002
aF0.00045170300799999999
aF0.00045170302099999999
aF0.00045170303599999999
aF0.00045170304799999999
aF0.00045170305800000001
aF0.00045170307200000001
aF0.000451703086
aF0.00045170309400000003
aF0.00045170310399999999
aF0.00045170311699999999
aF0.00045170312500000001
aF0.00045170312999999999
aF0.00045170313900000001
aF0.00045170314800000003
aF0.00045170315000000002
aF0.000451703154
aF0.00045170316200000003
aF0.00045170316500000001
aF0.00045170316500000001
aF0.00045170316999999999
aF0.00045170317499999997
aF0.00045170317299999998
aF0.00045170317399999998
aF0.00045170318000000001
aF0.00045170318000000001
aF0.00045170317600000002
aF0.000451703181
aF0.00045170318599999998
aF0.000451703181
aF0.00045170318000000001
aF0.00045170318499999999
aF0.00045170318699999998
aF0.000451703182
aF0.000451703182
aF0.00045170318799999998
aF0.00045170319000000002
aF0.00045170318900000003
aF0.00045170319200000001
aF0.00045170319699999999
aF0.00045170319999999998
aF0.00045170320300000002
aF0.00045170320600000001
aF0.00045170321099999999
aF0.00045170321399999998
aF0.00045170321700000002
aF0.00045170322100000001
aF0.00045170322499999999
aF0.00045170322499999999
aF0.00045170322799999998
aF0.00045170323300000001
aF0.00045170323300000001
aF0.000451703235
aF0.00045170323899999999
aF0.00045170323999999998
aF0.00045170324300000003
aF0.00045170324600000001
aF0.00045170324800000001
aF0.00045170325099999999
aF0.00045170325499999998
aF0.00045170325700000003
aF0.00045170325900000002
aF0.00045170326000000001
aF0.00045170326200000001
aF0.000451703263
aF0.00045170326499999999
aF0.00045170326699999999
aF0.00045170326699999999
aF0.00045170326799999998
aF0.00045170326899999998
aF0.00045170326999999997
aF0.00045170327100000002
aF0.00045170327100000002
aF0.00045170327100000002
aF0.00045170327300000002
aF0.00045170327300000002
aF0.00045170327200000002
aF0.00045170327300000002
aF0.00045170327300000002
aF0.00045170327300000002
aF0.00045170327200000002
aF0.00045170327300000002
aF0.00045170327400000001
aF0.00045170327500000001
aF0.00045170327400000001
aF0.00045170327500000001
aF0.00045170327500000001
aF0.00045170327500000001
aF0.000451703276
aF0.000451703276
aF0.000451703277
aF0.000451703278
aF0.00045170327999999999
aF0.00045170327899999999
aF0.00045170327899999999
aF0.00045170327999999999
aF0.00045170328099999998
aF0.00045170327999999999
aF0.00045170327999999999
aF0.00045170327999999999
aF0.00045170328199999998
aF0.00045170328099999998
aF0.00045170328099999998
aF0.00045170328199999998
aF0.00045170328199999998
aF0.00045170328199999998
aF0.00045170328099999998
aF0.00045170328099999998
aF0.00045170328199999998
aF0.00045170328199999998
aF0.00045170328099999998
aF0.00045170328199999998
aF0.00045170328199999998
aF0.00045170328099999998
aF0.00045170328099999998
aF0.00045170328199999998
aF0.00045170328199999998
aF0.00045170328199999998
aF0.00045170328199999998
aF0.00045170328199999998
aF0.00045170328199999998
aF0.00045170328199999998
aF0.00045170328199999998
aF0.00045170328199999998
aF0.00045170328199999998
aF0.00045170328199999998
aF0.00045170328099999998
aF0.00045170328099999998
aF0.00045170328099999998
aF0.00045170328099999998
aF0.00045170328099999998
aF0.00045170328099999998
aF0.00045170328099999998
aF0.00045170328099999998
aF0.00045170328099999998
aF0.00045170328099999998
aF0.00045170328099999998
aF0.00045170328099999998
aF0.00045170328099999998
aF0.00045170328099999998
aF0.00045170328099999998
aF0.00045170328099999998
aF0.00045170327999999999
aF0.00045170327999999999
aF0.00045170327999999999
aF0.00045170327999999999
aF0.00045170327999999999
aF0.00045170327999999999
aF0.00045170327999999999
aF0.00045170327999999999
aF0.00045170327999999999
aF0.00045170327999999999
aF0.00045170327999999999
aaa(lp78
g28
a(lp79
F0
aF0
aF0
aF0
aF0
aF0
aF0
aF0
aF0
aF0
aF0
aF0
aF0
aF0
aF0
aF0
aF0
aF0
aF0
aF0
aF0
aF0
aF0
aF0
aF0
aF0
aF0
aF0
aF0
aF0
aF0
aF0
aF0
aF0
aF0
aF0
aF0
aF0
aF0
aF0
aF0
aF0
aF0
aF0
aF0
aF0
aF0
aF0
aF0
aF0
aF0
aF0
aF0
aF0
aF0
aF0
aF0
aF0
aF0
aF0
aF0
aF0
aF0
aF0
aF0
aF0
aF0
aF0
aF0
aF0
aF0
aF0
aF0
aF0
aF0
aF0
aF0
aF0
aF0
aF0
aF0
aF0
aF0
aF0
aF0
aF0
aF0
aF0
aF0
aF0
aF0
aF0
aF0
aF0
aF0
aF0
aF0
aF0
aF0
aF0
aF0
aF0
aF0
aF0
aF0
aF0
aF0
aF0
aF0
aF0
aF0
aF0
aF0
aF0
aF0
aF0
aF0
aF0
aF0
aF0
aF0
aF0
aF0
aF0
aF0
aF0
aF0
aF0
aF0
aF0
aF0
aF0
aF0
aF0
aF0
aF0
aF0
aF0
aF0
aF0
aF0
aF0
aF0
aF0
aF0
aF0
aF0
aF0
aF0
aF0
aF0
aF0
aF0
aF0
aF0
aF0
aF0
aF0
aF0
aF0
aF0
aF0
aF0
aF0
aF0
aF0
aF0
aF0
aF0
aF0
aF0
aF0
aF0
aF0
aF0
aF0
aF0
aF0
aF0
aF0
aF0
aF0
aF0
aF0
aF0
aF0
aF0
aF0
aF0
aF0
aF0
aF0
aF0
aF0
aF0
aF0
aF0
aF0
aF0
aF0
aF0
aF0
aF0
aF0
aF0
aF0
aF0
aF0
aF0
aF0
aF0
aF0
aF0
aF0
aF0
aF0
aF0
aF0
aF0
aF0
aF0
aF0
aF0
aF0
aF0
aF0
aF0
aF0
aF0
aF0
aF0
aF0
aF0
aF0
aF0
aF0
aF0
aF0
aF0
aF0
aF0
aF0
aF0
aF0
aF0
aF0
aF0
aF0
aF0
aF0
aF0
aF0
aF0
aF0
aF0
aF0
aF0
aF0
aF0
aF0
aF0
aF0
aF0
aF0
aF0
aF0
aF0
aF0
aF0
aF0
aF0
aF0
aF0
aF0
aF0
aF0
aF0
aF0
aF0
aF0
aF0
aF0
aF0
aF0
aF0
aF0
aF0
aF0
aF0
aF0
aF0
aF0
aF0
aF0
aF0
aF0
aF0
aF0
aF0
aF0
aF0
aF0
aF0
aF0
aF0
aF0
aF0
aF0
aF0
aF0
aF0
aF0
aF0
aF0
aF0
aF0
aF0
aF0
aF0
aF0
aF0
aF0
aF0
aF0
aF0
aF0
aF0
aF0
aF0
aF0
aF0
aF0
aF0
aF0
aF0
aF0
aF0
aF0
aF0
aF0
aF0
aF0
aF0
aF0
aF0
aF0
aF0
aF0
aF0
aF0
aF0
aF0
aF0
aF0
aF0
aF0
aF0
aF0
aF0
aF0
aF0
aF0
aF0
aF0
aF0
aF0
aF0
aaa(lp80
g30
a(lp81
F0
aF0
aF0
aF0
aF0
aF0
aF0
aF0
aF0
aF0
aF0
aF0
aF0
aF0
aF0
aF0
aF0
aF0
aF0
aF0
aF0
aF0
aF0
aF0
aF0
aF0
aF0
aF0
aF0
aF0
aF0
aF0
aF0
aF0
aF0
aF0
aF0
aF0
aF0
aF0
aF0
aF0
aF0
aF0
aF0
aF0
aF0
aF0
aF0
aF0
aF0
aF0
aF0
aF0
aF0
aF0
aF0
aF0
aF0
aF0
aF0
aF0
aF0
aF0
aF0
aF0
aF0
aF0
aF0
aF0
aF0
aF0
aF0
aF0
aF0
aF0
aF0
aF0
aF0
aF0
aF0
aF0
aF0
aF0
aF0
aF0
aF0
aF0
aF0
aF0
aF0
aF0
aF0
aF0
aF0
aF0
aF0
aF0
aF0
aF0
aF0
aF0
aF0
aF0
aF0
aF0
aF0
aF0
aF0
aF0
aF0
aF0
aF0
aF0
aF0
aF0
aF0
aF0
aF0
aF0
aF0
aF0
aF0
aF0
aF0
aF0
aF0
aF0
aF0
aF0
aF0
aF0
aF0
aF0
aF0
aF0
aF0
aF0
aF0
aF0
aF0
aF0
aF0
aF0
aF0
aF0
aF0
aF0
aF0
aF0
aF0
aF0
aF0
aF0
aF0
aF0
aF0
aF0
aF0
aF0
aF0
aF0
aF0
aF0
aF0
aF0
aF0
aF0
aF0
aF0
aF0
aF0
aF0
aF0
aF0
aF0
aF0
aF0
aF0
aF0
aF0
aF0
aF0
aF0
aF0
aF0
aF0
aF0
aF0
aF0
aF0
aF0
aF0
aF0
aF0
aF0
aF0
aF0
aF0
aF0
aF0
aF0
aF0
aF0
aF0
aF0
aF0
aF0
aF0
aF0
aF0
aF0
aF0
aF0
aF0
aF0
aF0
aF0
aF0
aF0
aF0
aF0
aF0
aF0
aF0
aF0
aF0
aF0
aF0
aF0
aF0
aF0
aF0
aF0
aF0
aF0
aF0
aF0
aF0
aF0
aF0
aF0
aF0
aF0
aF0
aF0
aF0
aF0
aF0
aF0
aF0
aF0
aF0
aF0
aF0
aF0
aF0
aF0
aF0
aF0
aF0
aF0
aF0
aF0
aF0
aF0
aF0
aF0
aF0
aF0
aF0
aF0
aF0
aF0
aF0
aF0
aF0
aF0
aF0
aF0
aF0
aF0
aF0
aF0
aF0
aF0
aF0
aF0
aF0
aF0
aF0
aF0
aF0
aF0
aF0
aF0
aF0
aF0
aF0
aF0
aF0
aF0
aF0
aF0
aF0
aF0
aF0
aF0
aF0
aF0
aF0
aF0
aF0
aF0
aF0
aF0
aF0
aF0
aF0
aF0
aF0
aF0
aF0
aF0
aF0
aF0
aF0
aF0
aF0
aF0
aF0
aF0
aF0
aF0
aF0
aF0
aF0
aF0
aF0
aF0
aF0
aF0
aF0
aF0
aF0
aF0
aF0
aF0
aF0
aF0
aF0
aF0
aF0
aF0
aF0
aF0
aF0
aF0
aF0
aF0
aF0
aF0
aF0
aF0
aF0
aF0
aF0
aaa(lp82
g32
a(lp83
F0
aF0
aF0
aF0
aF0
aF0
aF0
aF0
aF0
aF0
aF0
aF0
aF0
aF0
aF0
aF0
aF0
aF0
aF0
aF0
aF0
aF0
aF0
aF0
aF0
aF0
aF0
aF0
aF0
aF0
aF0
aF0
aF0
aF0
aF0
aF0
aF0
aF0
aF0
aF0
aF0
aF0
aF0
aF0
aF0
aF0
aF0
aF0
aF0
aF0
aF0
aF0
aF0
aF0
aF0
aF0
aF0
aF0
aF0
aF0
aF0
aF0
aF0
aF0
aF0
aF0
aF0
aF0
aF0
aF0
aF0
aF0
aF0
aF0
aF0
aF0
aF0
aF0
aF0
aF0
aF0
aF0
aF0
aF0
aF0
aF0
aF0
aF0
aF0
aF0
aF0
aF0
aF0
aF0
aF0
aF0
aF0
aF0
aF0
aF0
aF0
aF0
aF0
aF0
aF0
aF0
aF0
aF0
aF0
aF0
aF0
aF0
aF0
aF0
aF0
aF0
aF0
aF0
aF0
aF0
aF0
aF0
aF0
aF0
aF0
aF0
aF0
aF0
aF0
aF0
aF0
aF0
aF0
aF0
aF0
aF0
aF0
aF0
aF0
aF0
aF0
aF0
aF0
aF0
aF0
aF0
aF0
aF0
aF0
aF0
aF0
aF0
aF0
aF0
aF0
aF0
aF0
aF0
aF0
aF0
aF0
aF0
aF0
aF0
aF0
aF0
aF0
aF0
aF0
aF0
aF0
aF0
aF0
aF0
aF0
aF0
aF0
aF0
aF0
aF0
aF0
aF0
aF0
aF0
aF0
aF0
aF0
aF0
aF0
aF0
aF0
aF0
aF0
aF0
aF0
aF0
aF0
aF0
aF0
aF0
aF0
aF0
aF0
aF0
aF0
aF0
aF0
aF0
aF0
aF0
aF0
aF0
aF0
aF0
aF0
aF0
aF0
aF0
aF0
aF0
aF0
aF0
aF0
aF0
aF0
aF0
aF0
aF0
aF0
aF0
aF0
aF0
aF0
aF0
aF0
aF0
aF0
aF0
aF0
aF0
aF0
aF0
aF0
aF0
aF0
aF0
aF0
aF0
aF0
aF0
aF0
aF0
aF0
aF0
aF0
aF0
aF0
aF0
aF0
aF0
aF0
aF0
aF0
aF0
aF0
aF0
aF0
aF0
aF0
aF0
aF0
aF0
aF0
aF0
aF0
aF0
aF0
aF0
aF0
aF0
aF0
aF0
aF0
aF0
aF0
aF0
aF0
aF0
aF0
aF0
aF0
aF0
aF0
aF0
aF0
aF0
aF0
aF0
aF0
aF0
aF0
aF0
aF0
aF0
aF0
aF0
aF0
aF0
aF0
aF0
aF0
aF0
aF0
aF0
aF0
aF0
aF0
aF0
aF0
aF0
aF0
aF0
aF0
aF0
aF0
aF0
aF0
aF0
aF0
aF0
aF0
aF0
aF0
aF0
aF0
aF0
aF0
aF0
aF0
aF0
aF0
aF0
aF0
aF0
aF0
aF0
aF0
aF0
aF0
aF0
aF0
aF0
aF0
aF0
aF0
aF0
aF0
aF0
aF0
aF0
aF0
aF0
aF0
aF0
aF0
aF0
aF0
aaa(lp84
g34
a(lp85
F-0.036764884300000002
aF-0.036761495200000001
aF-0.036759100400000001
aF-0.036756745600000001
aF-0.036754444099999999
aF-0.036752406199999997
aF-0.036750608300000001
aF-0.036749096600000003
aF-0.0367479182
aF-0.036747040600000003
aF-0.0367463923
aF-0.036745909
aF-0.0367455431
aF-0.036745264999999999
aF-0.036745056900000003
aF-0.0367449049
aF-0.036744795300000001
aF-0.0367447157
aF-0.036744655899999999
aF-0.036744608300000002
aF-0.036744568300000002
aF-0.036744533400000001
aF-0.036744502599999999
aF-0.036744474800000003
aF-0.036744448300000003
aF-0.036744419600000001
aF-0.036744383499999998
aF-0.0367443327
aF-0.036744259699999997
aF-0.036744164900000001
aF-0.036744046199999998
aF-0.036743848699999998
aF-0.036743556900000002
aF-0.036743228900000001
aF-0.036742891200000002
aF-0.036742569900000001
aF-0.036742281699999997
aF-0.036742033700000003
aF-0.036741827099999999
aF-0.036741661799999999
aF-0.0367415351
aF-0.036741442999999999
aF-0.0367413807
aF-0.036741343799999999
aF-0.036741327099999999
aF-0.036741325300000002
aF-0.036741333799999998
aF-0.036741349100000001
aF-0.036741368199999999
aF-0.036741389300000003
aF-0.0367414109
aF-0.036741432400000003
aF-0.036741453399999999
aF-0.0367414738
aF-0.036741493899999998
aF-0.036741513900000002
aF-0.036741534200000002
aF-0.036741555199999998
aF-0.036741577300000001
aF-0.036741600899999997
aF-0.036741626300000003
aF-0.036741653700000002
aF-0.036741683599999998
aF-0.036741715899999999
aF-0.0367417508
aF-0.036741787900000003
aF-0.036741826499999998
aF-0.036741866499999998
aF-0.036741910099999997
aF-0.036741957899999997
aF-0.036742008600000001
aF-0.036742060399999998
aF-0.036742110299999999
aF-0.0367421556
aF-0.0367421962
aF-0.036742231299999997
aF-0.036742260999999998
aF-0.036742286899999997
aF-0.036742309899999999
aF-0.036742330599999998
aF-0.036742349299999998
aF-0.0367423661
aF-0.036742380900000003
aF-0.036742393399999997
aF-0.036742403600000001
aF-0.036742411900000001
aF-0.0367424186
aF-0.036742424400000001
aF-0.036742429600000001
aF-0.036742434499999997
aF-0.036742439500000001
aF-0.0367424446
aF-0.036742450000000003
aF-0.036742455799999997
aF-0.036742461999999997
aF-0.036742468799999997
aF-0.036742476099999997
aF-0.036742484200000002
aF-0.0367424929
aF-0.036742501900000002
aF-0.036742510499999999
aF-0.036742517400000001
aF-0.036742522100000001
aF-0.036742524800000002
aF-0.036742526099999999
aF-0.036742526400000003
aF-0.036742525900000003
aF-0.036742524499999998
aF-0.036742522399999998
aF-0.036742519500000001
aF-0.0367425163
aF-0.036742512900000003
aF-0.036742509899999998
aF-0.036742507299999998
aF-0.036742505500000001
aF-0.036742504299999999
aF-0.036742503400000001
aF-0.036742502199999999
aF-0.036742500099999999
aF-0.036742496800000003
aF-0.036742492799999998
aF-0.036742488300000001
aF-0.036742483100000001
aF-0.036742477099999997
aF-0.036742470700000002
aF-0.036742464199999998
aF-0.036742457399999998
aF-0.036742450199999999
aF-0.036742443
aF-0.036742435900000002
aF-0.036742429100000001
aF-0.036742423199999999
aF-0.036742419399999997
aF-0.036742415
aF-0.036742410599999997
aF-0.036742406900000003
aF-0.036742404300000003
aF-0.036742402799999997
aF-0.036742402
aF-0.036742402
aF-0.0367424025
aF-0.036742403299999997
aF-0.036742404300000003
aF-0.036742405399999997
aF-0.036742406599999999
aF-0.036742407800000002
aF-0.036742409099999998
aF-0.036742410500000003
aF-0.036742411900000001
aF-0.0367424134
aF-0.036742415
aF-0.036742416700000002
aF-0.036742418399999997
aF-0.036742420099999999
aF-0.036742421800000001
aF-0.036742423400000002
aF-0.036742425000000002
aF-0.0367424264
aF-0.036742427799999998
aF-0.036742429
aF-0.036742430200000002
aF-0.036742431200000002
aF-0.036742432300000002
aF-0.036742433300000002
aF-0.036742434300000001
aF-0.036742434999999997
aF-0.036742435400000002
aF-0.036742436199999999
aF-0.0367424368
aF-0.0367424373
aF-0.0367424378
aF-0.036742438400000001
aF-0.0367424389
aF-0.036742439199999997
aF-0.036742439500000001
aF-0.036742439699999997
aF-0.0367424399
aF-0.036742440199999997
aF-0.0367424404
aF-0.036742440699999997
aF-0.036742441100000002
aF-0.036742441399999999
aF-0.036742441799999997
aF-0.036742442200000003
aF-0.036742442600000001
aF-0.036742443
aF-0.036742443299999997
aF-0.036742443700000002
aF-0.036742443999999999
aF-0.036742444300000003
aF-0.0367424446
aF-0.036742444899999997
aF-0.036742445200000001
aF-0.036742445499999998
aF-0.036742445800000002
aF-0.036742446099999999
aF-0.036742446400000003
aF-0.036742446599999999
aF-0.036742446800000002
aF-0.036742447099999999
aF-0.036742447300000002
aF-0.036742447499999997
aF-0.0367424477
aF-0.036742447999999997
aF-0.0367424482
aF-0.036742448400000002
aF-0.036742448499999997
aF-0.036742448699999999
aF-0.036742448900000002
aF-0.036742449000000003
aF-0.036742449199999999
aF-0.0367424493
aF-0.036742449500000003
aF-0.036742449599999998
aF-0.036742449699999999
aF-0.0367424498
aF-0.036742449900000002
aF-0.036742450000000003
aF-0.036742450099999997
aF-0.036742450199999999
aF-0.0367424503
aF-0.036742450400000001
aF-0.036742450500000003
aF-0.036742450599999997
aF-0.036742450599999997
aF-0.036742450699999998
aF-0.0367424508
aF-0.036742450900000001
aF-0.036742451000000002
aF-0.036742451099999997
aF-0.036742451199999998
aF-0.036742451299999999
aF-0.036742451400000001
aF-0.036742451400000001
aF-0.036742451500000002
aF-0.036742451600000003
aF-0.036742451699999998
aF-0.036742451799999999
aF-0.036742451799999999
aF-0.0367424519
aF-0.036742452000000002
aF-0.036742452000000002
aF-0.036742452100000003
aF-0.036742452100000003
aF-0.036742452199999998
aF-0.036742452199999998
aF-0.036742452299999999
aF-0.036742452299999999
aF-0.0367424524
aF-0.0367424524
aF-0.036742452500000002
aF-0.036742452500000002
aF-0.036742452500000002
aF-0.036742452600000003
aF-0.036742452600000003
aF-0.036742452600000003
aF-0.036742452600000003
aF-0.036742452600000003
aF-0.036742452699999997
aF-0.036742452699999997
aF-0.036742452699999997
aF-0.036742452699999997
aF-0.036742452699999997
aF-0.036742452699999997
aF-0.036742452699999997
aF-0.036742452699999997
aF-0.036742452699999997
aF-0.036742452699999997
aF-0.036742452699999997
aF-0.036742452699999997
aF-0.036742452699999997
aF-0.036742452699999997
aF-0.036742452699999997
aF-0.036742452699999997
aF-0.036742452699999997
aF-0.036742452699999997
aF-0.036742452699999997
aF-0.036742452699999997
aF-0.036742452699999997
aF-0.036742452699999997
aF-0.036742452699999997
aF-0.036742452699999997
aF-0.036742452699999997
aF-0.036742452699999997
aF-0.036742452699999997
aF-0.036742452699999997
aF-0.036742452699999997
aF-0.036742452699999997
aF-0.036742452699999997
aF-0.036742452699999997
aF-0.036742452699999997
aF-0.036742452699999997
aF-0.036742452699999997
aF-0.036742452699999997
aF-0.036742452699999997
aF-0.036742452699999997
aF-0.036742452699999997
aF-0.036742452699999997
aF-0.036742452699999997
aF-0.036742452699999997
aF-0.036742452699999997
aF-0.036742452699999997
aF-0.036742452699999997
aF-0.036742452699999997
aF-0.036742452699999997
aF-0.036742452699999997
aF-0.036742452699999997
aF-0.036742452699999997
aF-0.036742452699999997
aF-0.036742452699999997
aF-0.036742452699999997
aF-0.036742452699999997
aF-0.036742452699999997
aF-0.036742452699999997
aF-0.036742452699999997
aF-0.036742452699999997
aF-0.036742452699999997
aF-0.036742452699999997
aF-0.036742452600000003
aF-0.036742452600000003
aF-0.036742452600000003
aF-0.036742452600000003
aF-0.036742452600000003
aF-0.036742452600000003
aF-0.036742452600000003
aF-0.036742452600000003
aF-0.036742452600000003
aF-0.036742452600000003
aF-0.036742452600000003
aF-0.036742452600000003
aF-0.036742452600000003
aF-0.036742452600000003
aF-0.036742452600000003
aF-0.036742452600000003
aF-0.036742452600000003
aF-0.036742452600000003
aF-0.036742452600000003
aF-0.036742452600000003
aF-0.036742452600000003
aF-0.036742452600000003
aF-0.036742452600000003
aF-0.036742452600000003
aF-0.036742452600000003
aF-0.036742452600000003
aF-0.036742452600000003
aF-0.036742452600000003
aF-0.036742452600000003
aF-0.036742452600000003
aF-0.036742452600000003
aF-0.036742452600000003
aF-0.036742452600000003
aF-0.036742452600000003
aF-0.036742452600000003
aF-0.036742452600000003
aF-0.036742452600000003
aF-0.036742452600000003
aF-0.036742452600000003
aF-0.036742452600000003
aF-0.036742452600000003
aF-0.036742452600000003
aF-0.036742452600000003
aF-0.036742452600000003
aF-0.036742452600000003
aF-0.036742452600000003
aF-0.036742452600000003
aF-0.036742452600000003
aF-0.036742452600000003
aaa(lp86
g36
a(lp87
F-0.001016589
aF-0.0010124761
aF-0.00101097801
aF-0.0010097002599999999
aF-0.0010087380499999999
aF-0.00100810875
aF-0.00100759832
aF-0.00100717781
aF-0.00100685209
aF-0.0010065947799999999
aF-0.0010063940399999999
aF-0.0010062499599999999
aF-0.0010061579
aF-0.0010061040000000001
aF-0.00100607439
aF-0.00100606023
aF-0.0010060564600000001
aF-0.00100605985
aF-0.0010060681200000001
aF-0.0010060791799999999
aF-0.0010060908999999999
aF-0.0010061009600000001
aF-0.0010061066899999999
aF-0.0010061050699999999
aF-0.0010060928200000001
aF-0.0010060666100000001
aF-0.00100602349
aF-0.0010059613099999999
aF-0.00100587925
aF-0.0010057792100000001
aF-0.0010056771699999999
aF-0.0010055937099999999
aF-0.0010055309400000001
aF-0.0010054748
aF-0.00100543218
aF-0.0010054067099999999
aF-0.00100538792
aF-0.00100536728
aF-0.0010053491400000001
aF-0.0010053394800000001
aF-0.00100533819
aF-0.0010053432
aF-0.0010053541699999999
aF-0.0010053707199999999
aF-0.00100539121
aF-0.0010054139799999999
aF-0.00100543783
aF-0.00100546165
aF-0.0010054844800000001
aF-0.00100550573
aF-0.0010055251
aF-0.0010055424900000001
aF-0.00100555799
aF-0.0010055718500000001
aF-0.0010055843900000001
aF-0.00100559598
aF-0.0010056069700000001
aF-0.0010056177100000001
aF-0.00100562852
aF-0.0010056396699999999
aF-0.00100565143
aF-0.00100566401
aF-0.0010056775999999999
aF-0.0010056923199999999
aF-0.0010057081700000001
aF-0.0010057248900000001
aF-0.0010057418800000001
aF-0.0010057589599999999
aF-0.0010057771899999999
aF-0.0010057959
aF-0.0010058134899999999
aF-0.0010058296800000001
aF-0.0010058445299999999
aF-0.0010058584400000001
aF-0.00100587148
aF-0.00100588327
aF-0.00100589373
aF-0.00100590296
aF-0.0010059109700000001
aF-0.00100591773
aF-0.0010059231800000001
aF-0.0010059272399999999
aF-0.00100592977
aF-0.0010059307800000001
aF-0.00100593041
aF-0.00100592895
aF-0.0010059267499999999
aF-0.0010059242100000001
aF-0.00100592167
aF-0.0010059194199999999
aF-0.00100591767
aF-0.0010059165399999999
aF-0.00100591603
aF-0.0010059161
aF-0.00100591664
aF-0.0010059175300000001
aF-0.0010059186200000001
aF-0.0010059198100000001
aF-0.0010059209999999999
aF-0.0010059221399999999
aF-0.0010059231099999999
aF-0.0010059237599999999
aF-0.0010059240399999999
aF-0.00100592423
aF-0.0010059245799999999
aF-0.0010059251
aF-0.0010059257
aF-0.00100592624
aF-0.00100592657
aF-0.00100592656
aF-0.00100592614
aF-0.0010059252900000001
aF-0.00100592406
aF-0.00100592261
aF-0.0010059211700000001
aF-0.00100591999
aF-0.00100591908
aF-0.0010059183399999999
aF-0.0010059177500000001
aF-0.00100591745
aF-0.0010059175799999999
aF-0.001005918
aF-0.0010059185499999999
aF-0.00100591923
aF-0.0010059200300000001
aF-0.00100592076
aF-0.00100592125
aF-0.0010059214500000001
aF-0.0010059213799999999
aF-0.00100592097
aF-0.00100592021
aF-0.0010059195899999999
aF-0.0010059187699999999
aF-0.0010059178999999999
aF-0.0010059170500000001
aF-0.00100591653
aF-0.0010059161699999999
aF-0.0010059160200000001
aF-0.0010059160700000001
aF-0.00100591635
aF-0.0010059168300000001
aF-0.0010059173800000001
aF-0.00100591798
aF-0.00100591863
aF-0.00100591925
aF-0.0010059198200000001
aF-0.0010059203100000001
aF-0.0010059207299999999
aF-0.00100592108
aF-0.0010059213699999999
aF-0.0010059216100000001
aF-0.0010059218200000001
aF-0.0010059220199999999
aF-0.0010059222000000001
aF-0.0010059223700000001
aF-0.0010059225300000001
aF-0.0010059226799999999
aF-0.00100592281
aF-0.0010059228999999999
aF-0.0010059229600000001
aF-0.00100592298
aF-0.0010059229600000001
aF-0.0010059228999999999
aF-0.0010059228500000001
aF-0.0010059228000000001
aF-0.00100592266
aF-0.0010059226
aF-0.00100592255
aF-0.0010059225099999999
aF-0.0010059223999999999
aF-0.00100592239
aF-0.00100592238
aF-0.00100592233
aF-0.0010059222500000001
aF-0.00100592216
aF-0.0010059220299999999
aF-0.0010059218699999999
aF-0.0010059216999999999
aF-0.0010059215299999999
aF-0.0010059213799999999
aF-0.00100592124
aF-0.00100592114
aF-0.0010059210600000001
aF-0.0010059210100000001
aF-0.00100592097
aF-0.0010059209500000001
aF-0.00100592092
aF-0.0010059208799999999
aF-0.0010059208400000001
aF-0.0010059207900000001
aF-0.0010059207299999999
aF-0.0010059206800000001
aF-0.0010059206199999999
aF-0.0010059205700000001
aF-0.0010059205200000001
aF-0.0010059204700000001
aF-0.00100592042
aF-0.00100592038
aF-0.0010059203399999999
aF-0.0010059203000000001
aF-0.00100592026
aF-0.00100592021
aF-0.00100592017
aF-0.0010059201400000001
aF-0.0010059201
aF-0.00100592005
aF-0.0010059200199999999
aF-0.0010059199800000001
aF-0.00100591995
aF-0.0010059199
aF-0.0010059198700000001
aF-0.00100591984
aF-0.0010059197999999999
aF-0.0010059197600000001
aF-0.00100591972
aF-0.0010059196899999999
aF-0.0010059196500000001
aF-0.00100591961
aF-0.0010059195799999999
aF-0.0010059195500000001
aF-0.00100591951
aF-0.0010059194799999999
aF-0.00100591945
aF-0.0010059194199999999
aF-0.00100591939
aF-0.0010059193599999999
aF-0.00100591934
aF-0.0010059193099999999
aF-0.00100591929
aF-0.0010059192700000001
aF-0.00100591925
aF-0.00100591923
aF-0.0010059192099999999
aF-0.00100591919
aF-0.0010059191700000001
aF-0.0010059191499999999
aF-0.00100591914
aF-0.00100591913
aF-0.0010059191100000001
aF-0.0010059190999999999
aF-0.0010059190899999999
aF-0.00100591907
aF-0.0010059190500000001
aF-0.0010059190500000001
aF-0.0010059190399999999
aF-0.00100591902
aF-0.00100591901
aF-0.00100591901
aF-0.0010059190000000001
aF-0.0010059189799999999
aF-0.00100591897
aF-0.00100591896
aF-0.0010059189500000001
aF-0.0010059189400000001
aF-0.0010059189299999999
aF-0.00100591892
aF-0.00100591891
aF-0.0010059189
aF-0.0010059188900000001
aF-0.0010059188799999999
aF-0.00100591887
aF-0.00100591886
aF-0.00100591886
aF-0.00100591885
aF-0.0010059188400000001
aF-0.0010059188400000001
aF-0.0010059188299999999
aF-0.0010059188199999999
aF-0.0010059188199999999
aF-0.00100591881
aF-0.00100591881
aF-0.0010059188
aF-0.0010059188
aF-0.0010059187900000001
aF-0.0010059187900000001
aF-0.0010059187800000001
aF-0.0010059187800000001
aF-0.0010059187699999999
aF-0.0010059187699999999
aF-0.0010059187699999999
aF-0.0010059187699999999
aF-0.00100591876
aF-0.00100591876
aF-0.00100591876
aF-0.00100591876
aF-0.00100591875
aF-0.00100591875
aF-0.00100591875
aF-0.00100591875
aF-0.00100591875
aF-0.00100591875
aF-0.00100591875
aF-0.00100591875
aF-0.00100591874
aF-0.00100591875
aF-0.00100591874
aF-0.00100591874
aF-0.00100591874
aF-0.00100591874
aF-0.00100591874
aF-0.00100591874
aF-0.00100591874
aF-0.00100591874
aF-0.00100591874
aF-0.00100591874
aF-0.00100591874
aF-0.00100591874
aF-0.00100591874
aF-0.00100591874
aF-0.00100591874
aF-0.0010059187300000001
aF-0.00100591874
aF-0.00100591874
aF-0.00100591874
aF-0.0010059187300000001
aF-0.00100591874
aF-0.00100591874
aF-0.00100591874
aF-0.00100591874
aF-0.00100591874
aF-0.00100591874
aF-0.00100591874
aF-0.00100591874
aF-0.00100591874
aF-0.00100591874
aF-0.00100591874
aF-0.00100591874
aF-0.00100591874
aF-0.00100591874
aF-0.00100591874
aF-0.00100591874
aF-0.00100591874
aF-0.00100591874
aF-0.00100591874
aF-0.00100591874
aF-0.00100591874
aF-0.00100591874
aF-0.00100591874
aF-0.00100591874
aF-0.00100591874
aF-0.00100591874
aF-0.00100591874
aF-0.00100591874
aF-0.00100591874
aF-0.00100591874
aF-0.00100591874
aF-0.00100591874
aF-0.00100591874
aF-0.00100591874
aF-0.00100591874
aF-0.00100591874
aF-0.00100591874
aF-0.00100591874
aF-0.00100591874
aF-0.00100591874
aF-0.00100591874
aF-0.00100591874
aF-0.00100591874
aF-0.00100591874
aF-0.00100591874
aF-0.00100591874
aF-0.00100591874
aF-0.00100591874
aF-0.00100591874
aF-0.00100591874
aF-0.00100591874
aF-0.00100591874
aaa(lp88
g38
a(lp89
F0.066726859900000005
aF0.066730807000000003
aF0.0667335384
aF0.066736779100000004
aF0.066740460400000007
aF0.0667445973
aF0.066748764000000002
aF0.066752683199999996
aF0.066756246800000002
aF0.066759414500000003
aF0.066762222800000007
aF0.066764734000000006
aF0.0667670083
aF0.066769083600000001
aF0.066770976699999998
aF0.066772697800000003
aF0.066774259099999997
aF0.0667756766
aF0.0667769686
aF0.066778151699999996
aF0.066779237899999996
aF0.066780235199999996
aF0.066781149100000006
aF0.066781985099999996
aF0.066782750399999993
aF0.066783455199999994
aF0.066784113800000003
aF0.066784743999999993
aF0.066785364599999994
aF0.066785987800000002
aF0.066786635600000005
aF0.066787423900000004
aF0.066788388000000004
aF0.066789424700000002
aF0.066790492000000007
aF0.066791557900000006
aF0.066792603000000006
aF0.066793613200000004
aF0.066794578699999996
aF0.066795493900000003
aF0.066796355299999999
aF0.066797159800000006
aF0.066797903800000002
aF0.066798585699999996
aF0.066799207799999996
aF0.0667997751
aF0.066800293499999996
aF0.066800768799999993
aF0.066801206700000004
aF0.066801612699999999
aF0.066801991199999994
aF0.066802346200000001
aF0.066802681200000005
aF0.066802998899999994
aF0.066803301400000001
aF0.066803590499999996
aF0.0668038673
aF0.066804132899999993
aF0.066804387899999998
aF0.066804632799999999
aF0.066804867800000001
aF0.066805093300000007
aF0.066805309199999996
aF0.066805515600000004
aF0.066805712200000006
aF0.066805898099999997
aF0.066806069900000001
aF0.066806219599999994
aF0.066806339000000006
aF0.066806428500000001
aF0.0668064934
aF0.066806539299999995
aF0.066806571999999995
aF0.066806597699999998
aF0.0668066197
aF0.066806640900000006
aF0.066806662899999994
aF0.066806684300000002
aF0.0668067039
aF0.066806721200000002
aF0.066806735699999995
aF0.066806747499999999
aF0.0668067574
aF0.066806766200000006
aF0.066806774599999993
aF0.066806782999999995
aF0.066806791300000001
aF0.066806799200000003
aF0.066806806400000002
aF0.066806812600000001
aF0.066806817500000004
aF0.066806820700000005
aF0.066806822200000004
aF0.066806821700000005
aF0.066806819000000003
aF0.066806813899999998
aF0.066806806100000005
aF0.066806795099999997
aF0.066806781100000004
aF0.066806764599999999
aF0.066806746200000003
aF0.066806727999999996
aF0.066806712000000004
aF0.066806698799999994
aF0.066806688000000003
aF0.066806679100000002
aF0.066806672100000006
aF0.066806666799999997
aF0.066806663099999997
aF0.066806660899999995
aF0.066806660000000004
aF0.066806660000000004
aF0.066806660500000004
aF0.066806660899999995
aF0.066806660399999995
aF0.066806658699999993
aF0.0668066561
aF0.066806653399999999
aF0.066806651699999997
aF0.0668066519
aF0.066806653800000004
aF0.066806657500000005
aF0.066806663399999994
aF0.066806671400000003
aF0.066806681199999995
aF0.066806692599999995
aF0.066806705800000005
aF0.066806720799999997
aF0.066806737500000005
aF0.066806755499999995
aF0.066806774400000005
aF0.066806792899999995
aF0.066806809300000006
aF0.066806827499999999
aF0.066806846099999997
aF0.066806864199999996
aF0.066806881100000007
aF0.066806896099999999
aF0.066806909799999994
aF0.066806921699999994
aF0.066806931999999999
aF0.066806941199999997
aF0.066806949199999993
aF0.066806956099999995
aF0.066806961999999998
aF0.066806966999999995
aF0.066806971100000001
aF0.066806974500000005
aF0.066806977099999998
aF0.066806978899999994
aF0.066806980000000002
aF0.066806980399999993
aF0.066806980000000002
aF0.066806979099999997
aF0.066806977700000006
aF0.066806975899999996
aF0.066806973699999994
aF0.066806971100000001
aF0.066806968300000005
aF0.066806965300000007
aF0.066806962100000006
aF0.066806958799999996
aF0.066806955200000004
aF0.0668069513
aF0.066806947399999997
aF0.066806944100000001
aF0.066806940999999995
aF0.066806937199999999
aF0.066806933600000007
aF0.066806930200000003
aF0.066806926799999999
aF0.066806923300000001
aF0.066806919899999997
aF0.066806916699999996
aF0.066806913699999998
aF0.0668069107
aF0.066806907900000004
aF0.066806905200000002
aF0.066806902599999995
aF0.066806899899999994
aF0.066806897200000007
aF0.066806894500000005
aF0.066806891800000004
aF0.066806889100000003
aF0.066806886499999996
aF0.066806883900000003
aF0.066806881299999996
aF0.066806878900000005
aF0.066806876500000001
aF0.066806874200000005
aF0.066806871899999995
aF0.066806869699999993
aF0.066806867500000006
aF0.066806865300000004
aF0.066806863100000002
aF0.066806860999999995
aF0.066806858999999996
aF0.066806856999999997
aF0.066806855100000007
aF0.066806853200000002
aF0.066806851400000006
aF0.066806849700000004
aF0.066806848000000002
aF0.0668068463
aF0.066806844700000007
aF0.066806843199999993
aF0.066806841699999994
aF0.066806840199999995
aF0.066806838800000004
aF0.066806837399999999
aF0.066806836100000003
aF0.066806834800000006
aF0.066806833499999996
aF0.066806832299999994
aF0.066806831100000005
aF0.066806829999999998
aF0.066806828900000004
aF0.066806827799999996
aF0.066806826799999997
aF0.066806825799999997
aF0.066806824799999998
aF0.066806823900000006
aF0.066806823000000001
aF0.066806822099999996
aF0.066806821299999999
aF0.066806820399999994
aF0.066806819599999998
aF0.066806818800000001
aF0.066806818000000004
aF0.066806817300000002
aF0.066806816500000005
aF0.066806815800000002
aF0.0668068151
aF0.066806814399999997
aF0.066806813699999995
aF0.066806813100000001
aF0.066806812500000007
aF0.066806811800000004
aF0.066806811199999996
aF0.066806810699999997
aF0.066806810100000003
aF0.066806809499999995
aF0.066806808999999995
aF0.066806808499999995
aF0.066806807999999995
aF0.066806807499999996
aF0.066806807100000004
aF0.066806806600000004
aF0.066806806199999999
aF0.066806805799999994
aF0.066806805400000002
aF0.066806804999999997
aF0.066806804600000005
aF0.066806804299999994
aF0.066806803999999997
aF0.066806803600000006
aF0.066806803299999995
aF0.066806802999999998
aF0.066806802799999995
aF0.066806802499999998
aF0.066806802200000001
aF0.066806801999999998
aF0.066806801799999996
aF0.066806801599999993
aF0.066806801400000004
aF0.066806801200000002
aF0.066806800999999999
aF0.066806800900000005
aF0.066806800700000002
aF0.066806800599999994
aF0.066806800499999999
aF0.066806800299999997
aF0.066806800200000002
aF0.066806800099999994
aF0.0668068
aF0.066806799900000005
aF0.066806799799999997
aF0.066806799700000002
aF0.066806799599999994
aF0.066806799599999994
aF0.0668067995
aF0.066806799400000005
aF0.066806799299999997
aF0.066806799299999997
aF0.066806799200000003
aF0.066806799200000003
aF0.066806799099999994
aF0.066806799099999994
aF0.066806799
aF0.066806799
aF0.066806798900000006
aF0.066806798900000006
aF0.066806798900000006
aF0.066806798799999997
aF0.066806798799999997
aF0.066806798799999997
aF0.066806798799999997
aF0.066806798799999997
aF0.066806798799999997
aF0.066806798700000003
aF0.066806798700000003
aF0.066806798700000003
aF0.066806798700000003
aF0.066806798700000003
aF0.066806798700000003
aF0.066806798700000003
aF0.066806798700000003
aF0.066806798700000003
aF0.066806798700000003
aF0.066806798700000003
aF0.066806798700000003
aF0.066806798799999997
aF0.066806798799999997
aF0.066806798799999997
aF0.066806798799999997
aF0.066806798799999997
aF0.066806798799999997
aF0.066806798799999997
aF0.066806798799999997
aF0.066806798799999997
aF0.066806798799999997
aF0.066806798900000006
aF0.066806798900000006
aF0.066806798900000006
aF0.066806798900000006
aF0.066806798900000006
aF0.066806798900000006
aF0.066806798900000006
aF0.066806798900000006
aF0.066806798900000006
aF0.066806798900000006
aF0.066806799
aF0.066806799
aF0.066806799
aF0.066806799
aF0.066806799
aF0.066806799
aF0.066806799
aF0.066806799
aF0.066806799
aF0.066806799
aF0.066806799
aF0.066806799
aF0.066806799
aF0.066806799
aF0.066806799
aF0.066806799
aF0.066806799099999994
aF0.066806799099999994
aF0.066806799099999994
aF0.066806799099999994
aF0.066806799099999994
aF0.066806799099999994
aF0.066806799099999994
aF0.066806799099999994
aF0.066806799099999994
aF0.066806799099999994
aF0.066806799099999994
aF0.066806799099999994
aF0.066806799099999994
aF0.066806799099999994
aF0.066806799099999994
aF0.066806799099999994
aF0.066806799099999994
aF0.066806799099999994
aF0.066806799099999994
aF0.066806799099999994
aaa(lp90
g40
a(lp91
F0
aF0
aF0
aF0
aF0
aF0
aF0
aF0
aF0
aF0
aF0
aF0
aF0
aF0
aF0
aF0
aF0
aF0
aF0
aF0
aF0
aF0
aF0
aF0
aF0
aF0
aF0
aF0
aF0
aF0
aF0
aF0
aF0
aF0
aF0
aF0
aF0
aF0
aF0
aF0
aF0
aF0
aF0
aF0
aF0
aF0
aF0
aF0
aF0
aF0
aF0
aF0
aF0
aF0
aF0
aF0
aF0
aF0
aF0
aF0
aF0
aF0
aF0
aF0
aF0
aF0
aF0
aF0
aF0
aF0
aF0
aF0
aF0
aF0
aF0
aF0
aF0
aF0
aF0
aF0
aF0
aF0
aF0
aF0
aF0
aF0
aF0
aF0
aF0
aF0
aF0
aF0
aF0
aF0
aF0
aF0
aF0
aF0
aF0
aF0
aF0
aF0
aF0
aF0
aF0
aF0
aF0
aF0
aF0
aF0
aF0
aF0
aF0
aF0
aF0
aF0
aF0
aF0
aF0
aF0
aF0
aF0
aF0
aF0
aF0
aF0
aF0
aF0
aF0
aF0
aF0
aF0
aF0
aF0
aF0
aF0
aF0
aF0
aF0
aF0
aF0
aF0
aF0
aF0
aF0
aF0
aF0
aF0
aF0
aF0
aF0
aF0
aF0
aF0
aF0
aF0
aF0
aF0
aF0
aF0
aF0
aF0
aF0
aF0
aF0
aF0
aF0
aF0
aF0
aF0
aF0
aF0
aF0
aF0
aF0
aF0
aF0
aF0
aF0
aF0
aF0
aF0
aF0
aF0
aF0
aF0
aF0
aF0
aF0
aF0
aF0
aF0
aF0
aF0
aF0
aF0
aF0
aF0
aF0
aF0
aF0
aF0
aF0
aF0
aF0
aF0
aF0
aF0
aF0
aF0
aF0
aF0
aF0
aF0
aF0
aF0
aF0
aF0
aF0
aF0
aF0
aF0
aF0
aF0
aF0
aF0
aF0
aF0
aF0
aF0
aF0
aF0
aF0
aF0
aF0
aF0
aF0
aF0
aF0
aF0
aF0
aF0
aF0
aF0
aF0
aF0
aF0
aF0
aF0
aF0
aF0
aF0
aF0
aF0
aF0
aF0
aF0
aF0
aF0
aF0
aF0
aF0
aF0
aF0
aF0
aF0
aF0
aF0
aF0
aF0
aF0
aF0
aF0
aF0
aF0
aF0
aF0
aF0
aF0
aF0
aF0
aF0
aF0
aF0
aF0
aF0
aF0
aF0
aF0
aF0
aF0
aF0
aF0
aF0
aF0
aF0
aF0
aF0
aF0
aF0
aF0
aF0
aF0
aF0
aF0
aF0
aF0
aF0
aF0
aF0
aF0
aF0
aF0
aF0
aF0
aF0
aF0
aF0
aF0
aF0
aF0
aF0
aF0
aF0
aF0
aF0
aF0
aF0
aF0
aF0
aF0
aF0
aF0
aF0
aF0
aF0
aF0
aF0
aF0
aF0
aF0
aF0
aF0
aF0
aF0
aF0
aF0
aF0
aF0
aF0
aF0
aF0
aF0
aF0
aF0
aF0
aF0
aF0
aF0
aF0
aF0
aF0
aF0
aF0
aF0
aF0
aF0
aaa(lp92
g42
a(lp93
F151.91081
aF150.48153400000001
aF149.961027
aF149.515333
aF149.17522099999999
aF148.94495699999999
aF148.754672
aF148.59586300000001
aF148.47047000000001
aF148.36982
aF148.289725
aF148.229838
aF148.18827999999999
aF148.16027800000001
aF148.14117100000001
aF148.12799999999999
aF148.119033
aF148.11313000000001
aF148.109455
aF148.10723300000001
aF148.105705
aF148.104074
aF148.10143500000001
aF148.096767
aF148.08895899999999
aF148.07687100000001
aF148.059461
aF148.035943
aF148.00595999999999
aF147.97008099999999
aF147.933447
aF147.90222399999999
aF147.87691899999999
aF147.85343599999999
aF147.83423199999999
aF147.82065299999999
aF147.809359
aF147.79764
aF147.78695500000001
aF147.77929700000001
aF147.77463499999999
aF147.77231499999999
aF147.77224100000001
aF147.774295
aF147.77793399999999
aF147.78258600000001
aF147.78783000000001
aF147.79327799999999
aF147.79858899999999
aF147.803539
aF147.808009
aF147.811948
aF147.81536800000001
aF147.81833599999999
aF147.82094900000001
aF147.82331500000001
aF147.825547
aF147.827753
aF147.83003199999999
aF147.83247399999999
aF147.835162
aF147.838168
aF147.84155000000001
aF147.845349
aF147.84956500000001
aF147.854119
aF147.85883100000001
aF147.86368400000001
aF147.86906200000001
aF147.874743
aF147.880179
aF147.88525300000001
aF147.88995199999999
aF147.89437799999999
aF147.898537
aF147.90229400000001
aF147.905609
aF147.90852699999999
aF147.91105300000001
aF147.91317799999999
aF147.91489300000001
aF147.91616300000001
aF147.916943
aF147.91722999999999
aF147.917068
aF147.91654800000001
aF147.91578799999999
aF147.91491600000001
aF147.91404800000001
aF147.91328200000001
aF147.91268600000001
aF147.91229899999999
aF147.912126
aF147.91215099999999
aF147.912341
aF147.912656
aF147.91305199999999
aF147.91349500000001
aF147.91395600000001
aF147.914411
aF147.91481999999999
aF147.91512
aF147.915291
aF147.91541799999999
aF147.91558599999999
aF147.91580200000001
aF147.916033
aF147.916235
aF147.91636
aF147.91636700000001
aF147.916234
aF147.91595599999999
aF147.91555199999999
aF147.915074
aF147.91460699999999
aF147.91422700000001
aF147.91394299999999
aF147.913715
aF147.91352699999999
aF147.913431
aF147.91346300000001
aF147.91358099999999
aF147.91373400000001
aF147.913918
aF147.91413
aF147.91431399999999
aF147.91440800000001
aF147.9144
aF147.91429299999999
aF147.914072
aF147.91372999999999
aF147.91343599999999
aF147.91308799999999
aF147.91271
aF147.912342
aF147.912081
aF147.91188
aF147.91175799999999
aF147.91170600000001
aF147.91173800000001
aF147.911846
aF147.91198199999999
aF147.912138
aF147.91231500000001
aF147.91249099999999
aF147.91265200000001
aF147.912792
aF147.912913
aF147.913015
aF147.91310100000001
aF147.913175
aF147.913242
aF147.913307
aF147.91337100000001
aF147.913434
aF147.91349700000001
aF147.913556
aF147.91360900000001
aF147.91365400000001
aF147.91368800000001
aF147.91371000000001
aF147.91372000000001
aF147.91372100000001
aF147.91372100000001
aF147.913725
aF147.91369599999999
aF147.91369
aF147.91369299999999
aF147.91369800000001
aF147.913678
aF147.91369399999999
aF147.913704
aF147.91370800000001
aF147.91369499999999
aF147.91368
aF147.91365500000001
aF147.91361599999999
aF147.91357199999999
aF147.91353100000001
aF147.91349399999999
aF147.91346300000001
aF147.913442
aF147.913431
aF147.91342599999999
aF147.91342700000001
aF147.913432
aF147.91343499999999
aF147.913434
aF147.913432
aF147.91342800000001
aF147.91342
aF147.91341299999999
aF147.91340600000001
aF147.913399
aF147.91339199999999
aF147.913388
aF147.91338300000001
aF147.913377
aF147.91337300000001
aF147.91337100000001
aF147.913366
aF147.91335799999999
aF147.913354
aF147.913352
aF147.91334599999999
aF147.91333900000001
aF147.91333399999999
aF147.913331
aF147.91332600000001
aF147.913319
aF147.91331400000001
aF147.91331
aF147.91330400000001
aF147.913296
aF147.91328999999999
aF147.913285
aF147.91327799999999
aF147.91327100000001
aF147.913265
aF147.91325900000001
aF147.913253
aF147.91324599999999
aF147.913241
aF147.91323600000001
aF147.91323
aF147.91322600000001
aF147.91322199999999
aF147.913217
aF147.91321300000001
aF147.91320999999999
aF147.913207
aF147.91320300000001
aF147.91320099999999
aF147.91319899999999
aF147.913196
aF147.91319300000001
aF147.91319200000001
aF147.91318999999999
aF147.91318699999999
aF147.913186
aF147.913186
aF147.913183
aF147.91318000000001
aF147.91318100000001
aF147.91318000000001
aF147.91317699999999
aF147.91317599999999
aF147.91317599999999
aF147.913175
aF147.913173
aF147.91317100000001
aF147.91317100000001
aF147.91316900000001
aF147.91316599999999
aF147.91316499999999
aF147.913163
aF147.913161
aF147.91315900000001
aF147.91315700000001
aF147.91315599999999
aF147.91315399999999
aF147.913152
aF147.913151
aF147.91315
aF147.91314800000001
aF147.91314800000001
aF147.91314700000001
aF147.91314499999999
aF147.91314399999999
aF147.91314299999999
aF147.91314199999999
aF147.913141
aF147.913139
aF147.913138
aF147.91313700000001
aF147.91313600000001
aF147.91313600000001
aF147.91313500000001
aF147.91313400000001
aF147.91313299999999
aF147.91313299999999
aF147.91313299999999
aF147.91313199999999
aF147.91313099999999
aF147.91313099999999
aF147.91313099999999
aF147.91313
aF147.91313
aF147.91313
aF147.91313
aF147.91313
aF147.91313
aF147.913129
aF147.913129
aF147.91313
aF147.913129
aF147.913129
aF147.913129
aF147.913129
aF147.913129
aF147.913129
aF147.913128
aF147.913128
aF147.913128
aF147.913128
aF147.913127
aF147.913127
aF147.913127
aF147.913127
aF147.913127
aF147.913127
aF147.913127
aF147.913127
aF147.913127
aF147.91312600000001
aF147.91312600000001
aF147.91312600000001
aF147.91312600000001
aF147.91312600000001
aF147.91312600000001
aF147.913127
aF147.913127
aF147.91312600000001
aF147.913127
aF147.913127
aF147.913127
aF147.913127
aF147.913127
aF147.913127
aF147.913127
aF147.913127
aF147.913127
aF147.913127
aF147.913127
aF147.913127
aF147.913127
aF147.913127
aF147.913127
aF147.913127
aF147.913127
aF147.913127
aF147.913127
aF147.913127
aF147.913127
aF147.913127
aF147.913127
aF147.913127
aF147.913127
aF147.913127
aF147.913127
aF147.913127
aF147.913127
aF147.913127
aF147.913127
aF147.913127
aF147.913127
aF147.913128
aF147.913128
aF147.913128
aF147.913128
aF147.913128
aF147.913128
aF147.913128
aF147.913128
aF147.913128
aF147.913128
aF147.913128
aaa(lp94
S'Res_Flow[0]'
p95
a(lp96
F-7.5900089299999998
aF-7.6477726099999996
aF-7.6505132700000003
aF-7.6185683099999997
aF-7.5761287199999998
aF-7.5427345700000004
aF-7.5137707499999999
aF-7.4868326600000001
aF-7.46880845
aF-7.4581956299999996
aF-7.4538435300000003
aF-7.4542958500000003
aF-7.4578432599999998
aF-7.4631047199999996
aF-7.4692730200000002
aF-7.4758431200000004
aF-7.4823043699999996
aF-7.48811391
aF-7.49288708
aF-7.4965961200000004
aF-7.4996170500000003
aF-7.5025813000000001
aF-7.5062478500000003
aF-7.5114803500000003
aF-7.5193263999999997
aF-7.5311493399999998
aF-7.5487650100000003
aF-7.5746430199999999
aF-7.6123584600000003
aF-7.6669907100000003
aF-7.7399997000000003
aF-7.8045117199999998
aF-7.8382222700000002
aF-7.8595250300000004
aF-7.8786298700000001
aF-7.8941087899999998
aF-7.9017973100000001
aF-7.9045446400000001
aF-7.9065773200000002
aF-7.9085610900000001
aF-7.9093745899999996
aF-7.9089344700000002
aF-7.9078603899999997
aF-7.9064526900000001
aF-7.90490548
aF-7.9036165499999997
aF-7.9029707699999996
aF-7.9032182500000001
aF-7.9045893100000004
aF-7.9073130599999999
aF-7.9115605799999997
aF-7.9174634499999996
aF-7.9251536099999997
aF-7.9347518199999998
aF-7.9463456299999997
aF-7.9599960699999999
aF-7.9757525500000002
aF-7.9936627600000003
aF-8.0137913699999999
aF-8.0362487399999996
aF-8.0612024400000006
aF-8.0888692500000001
aF-8.1194863399999999
aF-8.1532380100000008
aF-8.1900521899999994
aF-8.2289428699999991
aF-8.2662517100000006
aF-8.2925587299999997
aF-8.2959402799999999
aF-8.2812415700000006
aF-8.2640376100000008
aF-8.2525874899999998
aF-8.2480166399999995
aF-8.2474495099999992
aF-8.2513921400000001
aF-8.2605671300000001
aF-8.2718171900000002
aF-8.2835322300000005
aF-8.2944755299999997
aF-8.3031520899999993
aF-8.3102379099999997
aF-8.3167990599999992
aF-8.3234608899999998
aF-8.3304720000000003
aF-8.3378955700000006
aF-8.3458227899999997
aF-8.3543877500000008
aF-8.3637587100000008
aF-8.3741322199999999
aF-8.3857277099999994
aF-8.3987555700000005
aF-8.4133653099999997
aF-8.42962028
aF-8.4475053500000001
aF-8.4669398999999999
aF-8.4877720300000004
aF-8.5097231499999992
aF-8.5322514199999997
aF-8.5542720499999998
aF-8.5737508400000007
aF-8.5880268100000006
aF-8.5952244499999999
aF-8.5949761099999993
aF-8.5914970900000007
aF-8.5887323999999996
aF-8.5885074299999999
aF-8.5911345200000007
aF-8.5970300200000001
aF-8.6064483799999998
aF-8.6191796600000004
aF-8.6346968200000003
aF-8.6525560200000005
aF-8.67274572
aF-8.6955243499999995
aF-8.7206398800000002
aF-8.7466534599999992
aF-8.7715740899999997
aF-8.7941756099999999
aF-8.8139942900000001
aF-8.8310723099999997
aF-8.8474892300000008
aF-8.8665319999999994
aF-8.8880789999999994
aF-8.90999652
aF-8.9324553600000005
aF-8.9547639199999995
aF-8.9765629899999997
aF-8.9982213299999998
aF-9.0201534700000003
aF-9.0421224000000002
aF-9.0641795999999992
aF-9.0872460400000001
aF-9.1078561100000002
aF-9.1290667499999998
aF-9.1525717899999997
aF-9.1748155100000002
aF-9.1995445799999995
aF-9.2183214200000005
aF-9.2395802099999997
aF-9.26239627
aF-9.2807969499999992
aF-9.30074559
aF-9.3216437800000005
aF-9.3426891800000007
aF-9.3627406900000008
aF-9.3834460600000007
aF-9.4053416700000003
aF-9.4286839600000008
aF-9.4530576199999992
aF-9.4783308399999999
aF-9.5046928600000005
aF-9.5319695499999995
aF-9.5597980699999994
aF-9.58824246
aF-9.6175153499999997
aF-9.6478677499999996
aF-9.6793210500000004
aF-9.7119399800000004
aF-9.7455469000000008
aF-9.7792478099999993
aF-9.8114332199999996
aF-9.8399280400000002
aF-9.8638071800000002
aF-9.8864509500000004
aF-9.9129328599999997
aF-9.9385859300000003
aF-9.9478663300000001
aF-9.9764555799999997
aF-10.0133846
aF-10.047685899999999
aF-10.084316100000001
aF-10.1192622
aF-10.1472693
aF-10.180617099999999
aF-10.207670999999999
aF-10.235637000000001
aF-10.260709500000001
aF-10.278713399999999
aF-10.2918042
aF-10.3197063
aF-10.3480504
aF-10.372159999999999
aF-10.401436199999999
aF-10.4374371
aF-10.464934
aF-10.4884281
aF-10.518600299999999
aF-10.5399256
aF-10.551054199999999
aF-10.567901000000001
aF-10.587656900000001
aF-10.601983499999999
aF-10.6194849
aF-10.642156999999999
aF-10.659369999999999
aF-10.6740371
aF-10.6954072
aF-10.714160400000001
aF-10.721522500000001
aF-10.731415399999999
aF-10.7485456
aF-10.756418399999999
aF-10.754169299999999
aF-10.760976899999999
aF-10.7752762
aF-10.7823043
aF-10.7830634
aF-10.7914279
aF-10.807008400000001
aF-10.818981900000001
aF-10.8240725
aF-10.833569799999999
aF-10.850304299999999
aF-10.8649457
aF-10.872149500000001
aF-10.8829092
aF-10.9014887
aF-10.916706400000001
aF-10.923504899999999
aF-10.9360421
aF-10.9565515
aF-10.968703
aF-10.9749324
aF-10.9926789
aF-11.013358500000001
aF-11.018620800000001
aF-11.028252800000001
aF-11.0526158
aF-11.0648593
aF-11.066807799999999
aF-11.0874196
aF-11.1108323
aF-11.1110138
aF-11.1215639
aF-11.150991700000001
aF-11.1583992
aF-11.158224199999999
aF-11.1844202
aF-11.2085103
aF-11.2015118
aF-11.213703900000001
aF-11.249897300000001
aF-11.2533213
aF-11.246184
aF-11.272755800000001
aF-11.303921600000001
aF-11.292936299999999
aF-11.2940968
aF-11.3223726
aF-11.3376205
aF-11.326270600000001
aF-11.3335501
aF-11.347243799999999
aF-11.3583695
aF-11.3547419
aF-11.3618992
aF-11.3746788
aF-11.3926468
aF-11.3900302
aF-11.403809799999999
aF-11.4238757
aF-11.444032699999999
aF-11.4359372
aF-11.468601899999999
aF-11.4916217
aF-11.4814895
aF-11.497152
aF-11.531248099999999
aF-11.5198714
aF-11.559179800000001
aF-11.581621500000001
aF-11.5645241
aF-11.615450900000001
aF-11.6304148
aF-11.6104448
aF-11.663771300000001
aF-11.6773981
aF-11.675527499999999
aF-11.7097803
aF-11.715783500000001
aF-11.732158200000001
aF-11.7487528
aF-11.762303599999999
aF-11.7792663
aF-11.7811944
aF-11.790475600000001
aF-11.8127324
aF-11.8192652
aF-11.8421336
aF-11.8541249
aF-11.843901300000001
aF-11.871187300000001
aF-11.8874286
aF-11.901480899999999
aF-11.913686200000001
aF-11.9358541
aF-11.946202899999999
aF-11.9402323
aF-11.9682719
aF-11.985634900000001
aF-12.0027952
aF-12.010415200000001
aF-12.0314028
aF-12.041153100000001
aF-12.0743454
aF-12.073385399999999
aF-12.0897247
aF-12.1135944
aF-12.132108000000001
aF-12.1154346
aF-12.153203400000001
aF-12.168677499999999
aF-12.1909399
aF-12.183760299999999
aF-12.2183232
aF-12.230156600000001
aF-12.250909399999999
aF-12.243971699999999
aF-12.2743916
aF-12.294577500000001
aF-12.291252200000001
aF-12.324343300000001
aF-12.320429900000001
aF-12.3130364
aF-12.363251099999999
aF-12.367104100000001
aF-12.3544134
aF-12.396403599999999
aF-12.4165934
aF-12.385900100000001
aF-12.4256145
aF-12.4547648
aF-12.430218099999999
aF-12.4584779
aF-12.4900328
aF-12.494096900000001
aF-12.539835200000001
aF-12.5327561
aF-12.5275081
aF-12.5816795
aF-12.581806
aF-12.5792105
aF-12.600729599999999
aF-12.639215
aF-12.6541394
aF-12.6479973
aF-12.6823906
aF-12.676675100000001
aF-12.726551000000001
aF-12.7433245
aF-12.7185334
aF-12.757792200000001
aF-12.779586699999999
aF-12.8202851
aF-12.8409479
aF-12.835654399999999
aF-12.874249900000001
aF-12.8830089
aF-12.839926200000001
aF-12.891682899999999
aF-12.9318422
aF-12.9509416
aF-12.9535524
aF-12.9723591
aF-12.9716963
aF-12.99667
aF-13.005594500000001
aaa(lp97
S'Res_Flow[1]'
p98
a(lp99
F-7.5763440700000002
aF-7.5578180799999997
aF-7.5898575700000004
aF-7.5698455100000004
aF-7.5348336900000001
aF-7.5141192200000004
aF-7.4917334799999997
aF-7.4593314299999998
aF-7.43560628
aF-7.4203348599999996
aF-7.4141507899999999
aF-7.4165023999999997
aF-7.4251584199999998
aF-7.4370337900000001
aF-7.4488682199999996
aF-7.4575055299999997
aF-7.4602944500000001
aF-7.45586605
aF-7.4447420500000003
aF-7.4290627100000002
aF-7.4115894400000002
aF-7.3947904099999997
aF-7.3805538300000002
aF-7.37035616
aF-7.3655832400000003
aF-7.3678139500000004
aF-7.37900592
aF-7.4016754100000002
aF-7.4392759399999999
aF-7.4963889300000002
aF-7.5726800699999997
aF-7.6376967999999996
aF-7.6717239900000003
aF-7.6968166800000004
aF-7.7241475499999996
aF-7.7510440300000001
aF-7.7709358000000002
aF-7.7858675100000001
aF-7.8001069599999999
aF-7.8139847299999996
aF-7.8258982000000001
aF-7.8354567900000003
aF-7.8430128400000001
aF-7.8486516200000001
aF-7.8525323499999997
aF-7.8551518900000001
aF-7.8570273500000001
aF-7.8585565800000001
aF-7.86013289
aF-7.8621559300000001
aF-7.8649844499999997
aF-7.8689665900000003
aF-7.8744797899999996
aF-7.88191401
aF-7.8916429499999996
aF-7.9040231500000004
aF-7.9194045700000002
aF-7.9381428400000003
aF-7.9606285899999998
aF-7.9873382399999997
aF-8.0188789299999996
aF-8.0560242899999999
aF-8.0997373400000008
aF-8.1511376299999991
aF-8.2112200699999995
aF-8.2796258999999992
aF-8.3502852399999998
aF-8.4022682500000005
aF-8.4089016999999995
aF-8.3853430600000003
aF-8.3620157899999992
aF-8.3479916599999999
aF-8.3404376199999994
aF-8.3359230499999999
aF-8.3379144600000004
aF-8.3490844400000004
aF-8.36492361
aF-8.3826506700000003
aF-8.3998157800000008
aF-8.4131508200000003
aF-8.4235661700000009
aF-8.4330102999999994
aF-8.4424274100000005
aF-8.4520136200000007
aF-8.4618490099999999
aF-8.4723326100000005
aF-8.4840444500000007
aF-8.4975485099999997
aF-8.5133522500000005
aF-8.5319578000000007
aF-8.5538646600000003
aF-8.5794980600000006
aF-8.6091737399999992
aF-8.6431373399999991
aF-8.6816222100000005
aF-8.7248532999999995
aF-8.7728823400000007
aF-8.8250186900000003
aF-8.8782381000000008
aF-8.9245416300000002
aF-8.9514367299999993
aF-8.9497817499999996
aF-8.9246565899999997
aF-8.8957455000000003
aF-8.8735209299999998
aF-8.8597219599999999
aF-8.8534129400000001
aF-8.8549036000000001
aF-8.8647521900000008
aF-8.8826301000000001
aF-8.9074448099999994
aF-8.9381409299999994
aF-8.9744068000000006
aF-9.0164089799999996
aF-9.0631304999999998
aF-9.1096216499999993
aF-9.1480319399999992
aF-9.1747985300000003
aF-9.1909883000000008
aF-9.1991730500000006
aF-9.2082975999999999
aF-9.2300167900000005
aF-9.2626472100000008
aF-9.2948126099999993
aF-9.3259206199999998
aF-9.3536289900000007
aF-9.3777956699999994
aF-9.4018141800000006
aF-9.4274731500000009
aF-9.4543513899999994
aF-9.4831195499999996
aF-9.5185467199999998
aF-9.5372272700000007
aF-9.5565847999999995
aF-9.5948359199999995
aF-9.6140213899999996
aF-9.6422747799999993
aF-9.6424479999999999
aF-9.6570634599999998
aF-9.6691616099999997
aF-9.6761045499999998
aF-9.6783282100000001
aF-9.6952475699999994
aF-9.7025555000000008
aF-9.7108179099999994
aF-9.7193862800000002
aF-9.7343205000000008
aF-9.7539163799999997
aF-9.7759835099999997
aF-9.8002039799999991
aF-9.8275465099999995
aF-9.85756531
aF-9.8892846399999996
aF-9.9229580899999998
aF-9.9592542700000006
aF-9.9983690200000002
aF-10.0400861
aF-10.0843411
aF-10.1304135
aF-10.1738891
aF-10.206346999999999
aF-10.220276
aF-10.220487800000001
aF-10.2222305
aF-10.237534699999999
aF-10.2518774
aF-10.229005600000001
aF-10.261743600000001
aF-10.378014500000001
aF-10.401417
aF-10.4451705
aF-10.488652099999999
aF-10.504830200000001
aF-10.539744600000001
aF-10.561608400000001
aF-10.5893228
aF-10.602778900000001
aF-10.592366200000001
aF-10.5774534
aF-10.6092832
aF-10.647434199999999
aF-10.673757699999999
aF-10.714588300000001
aF-10.780863999999999
aF-10.8107311
aF-10.8320268
aF-10.8819949
aF-10.899302499999999
aF-10.887294799999999
aF-10.8969585
aF-10.916211000000001
aF-10.9187862
aF-10.9309417
aF-10.958520699999999
aF-10.970147799999999
aF-10.9777772
aF-11.004523600000001
aF-11.0216361
aF-11.010978100000001
aF-11.009602299999999
aF-11.0241706
aF-11.016622699999999
aF-10.9934642
aF-10.9883209
aF-10.998413899999999
aF-10.994863199999999
aF-10.982424999999999
aF-10.9835817
aF-10.998730999999999
aF-11.007543399999999
aF-11.0052173
aF-11.010812
aF-11.030197299999999
aF-11.046144999999999
aF-11.0490882
aF-11.0584016
aF-11.083122700000001
aF-11.1019954
aF-11.105324700000001
aF-11.118770100000001
aF-11.148864400000001
aF-11.1631096
aF-11.165664899999999
aF-11.189270199999999
aF-11.220782
aF-11.2222662
aF-11.229806200000001
aF-11.267498099999999
aF-11.2824104
aF-11.2769998
aF-11.3042193
aF-11.3413252
aF-11.3332671
aF-11.3399321
aF-11.3874172
aF-11.3918438
aF-11.3810257
aF-11.4174735
aF-11.455012099999999
aF-11.4334243
aF-11.439963000000001
aF-11.5028814
aF-11.4966179
aF-11.4728393
aF-11.5070885
aF-11.5579851
aF-11.526052699999999
aF-11.512318799999999
aF-11.552037800000001
aF-11.566124800000001
aF-11.5371402
aF-11.534804599999999
aF-11.5501489
aF-11.555679400000001
aF-11.5412503
aF-11.5442553
aF-11.5600939
aF-11.579619900000001
aF-11.5692556
aF-11.5849543
aF-11.6122941
aF-11.638146900000001
aF-11.623829799999999
aF-11.6763993
aF-11.7034293
aF-11.681653499999999
aF-11.6995022
aF-11.778662300000001
aF-11.754721099999999
aF-11.8040734
aF-11.841253500000001
aF-11.813344900000001
aF-11.892669400000001
aF-11.914732900000001
aF-11.879495800000001
aF-11.9708212
aF-11.9808237
aF-11.9577177
aF-12.0313941
aF-12.020611499999999
aF-12.024839999999999
aF-12.0512107
aF-12.055430100000001
aF-12.0799314
aF-12.066661399999999
aF-12.0705182
aF-12.1159892
aF-12.1067068
aF-12.1405238
aF-12.162782200000001
aF-12.126455699999999
aF-12.1898553
aF-12.202919400000001
aF-12.202695200000001
aF-12.2476103
aF-12.2673054
aF-12.283977
aF-12.264465599999999
aF-12.310771600000001
aF-12.333316399999999
aF-12.343828800000001
aF-12.3558366
aF-12.388222799999999
aF-12.397209500000001
aF-12.4515475
aF-12.4418545
aF-12.454407700000001
aF-12.4892383
aF-12.5202051
aF-12.466289700000001
aF-12.553476399999999
aF-12.5508203
aF-12.590534999999999
aF-12.5512753
aF-12.633610300000001
aF-12.6263684
aF-12.651885399999999
aF-12.6149301
aF-12.671111
aF-12.6988348
aF-12.663719199999999
aF-12.737614799999999
aF-12.696995899999999
aF-12.668859299999999
aF-12.787053999999999
aF-12.737765899999999
aF-12.6807702
aF-12.7625543
aF-12.793194099999999
aF-12.705951799999999
aF-12.7658205
aF-12.8484769
aF-12.7703259
aF-12.7996827
aF-12.873976499999999
aF-12.849524000000001
aF-12.9406798
aF-12.8905618
aF-12.857810199999999
aF-12.9962988
aF-12.9412102
aF-12.889580199999999
aF-12.904204200000001
aF-12.984266
aF-12.9834309
aF-12.9360576
aF-13.0077251
aF-12.9691033
aF-13.079473
aF-13.096109500000001
aF-13.020628500000001
aF-13.0879368
aF-13.1358093
aF-13.197043799999999
aF-13.2122633
aF-13.168237100000001
aF-13.2337138
aF-13.2347289
aF-13.1511079
aF-13.231365
aF-13.3055179
aF-13.317887199999999
aF-13.2923793
aF-13.3175113
aF-13.275087299999999
aF-13.3016097
aF-13.303547099999999
aaa(lp100
S'Res_Flow[2]'
p101
a(lp102
F-8.1090193199999998
aF-7.7333003400000004
aF-7.6933460499999997
aF-7.6443478000000002
aF-7.5984182100000002
aF-7.5789638300000002
aF-7.5673229700000002
aF-7.5528667299999999
aF-7.5443001199999999
aF-7.5402606199999997
aF-7.5391375099999998
aF-7.5404979000000001
aF-7.5438753399999996
aF-7.5486100399999998
aF-7.5540215899999996
aF-7.5596698099999999
aF-7.56548759
aF-7.5716534900000001
aF-7.5783929199999998
aF-7.5858757499999996
aF-7.5942297700000001
aF-7.6035079300000001
aF-7.6137241600000003
aF-7.62498012
aF-7.6376435100000002
aF-7.6525536499999998
aF-7.6712532400000004
aF-7.6963596599999997
aF-7.7323333700000001
aF-7.7865415000000002
aF-7.8651276299999999
aF-7.9431703000000002
aF-7.9913137699999996
aF-8.0267939399999992
aF-8.0592196299999994
aF-8.0864146899999998
aF-8.10274319
aF-8.11138899
aF-8.1178068900000007
aF-8.1231013099999991
aF-8.1263966599999993
aF-8.1279181400000002
aF-8.1283520399999993
aF-8.12788383
aF-8.1267271300000008
aF-8.1254434500000006
aF-8.1245442099999998
aF-8.1243751199999998
aF-8.1252936499999997
aF-8.1276502799999992
aF-8.1316998799999993
aF-8.1376475399999997
aF-8.1457059600000008
aF-8.1560739400000006
aF-8.1689134400000007
aF-8.1843701699999993
aF-8.2026002400000007
aF-8.2237904700000009
aF-8.2481939000000004
aF-8.2761791799999997
aF-8.3082574699999991
aF-8.3450875999999994
aF-8.3874525700000007
aF-8.4361509899999998
aF-8.4916084699999992
aF-8.5525299199999996
aF-8.6120388000000005
aF-8.6510637199999998
aF-8.6473529899999999
aF-8.6142044999999996
aF-8.5814950499999991
aF-8.5609602200000001
aF-8.5507884700000005
aF-8.5454188099999993
aF-8.5465058500000008
aF-8.5554766200000003
aF-8.5680428000000006
aF-8.5821367399999993
aF-8.5955392400000008
aF-8.6055200799999998
aF-8.6131664899999993
aF-8.6203159500000002
aF-8.6279100399999997
aF-8.6361547400000003
aF-8.64498824
aF-8.6544640299999998
aF-8.6647574600000006
aF-8.6761140599999997
aF-8.6888344499999999
aF-8.7032716200000007
aF-8.7197750099999993
aF-8.7385862400000001
aF-8.7597723900000002
aF-8.7832212500000004
aF-8.8086565799999992
aF-8.8356283799999993
aF-8.8634265299999999
aF-8.8908543299999998
aF-8.9157774399999994
aF-8.9348053400000005
aF-8.9435711399999995
aF-8.9396429699999995
aF-8.9249240299999997
aF-8.9083577100000007
aF-8.8966474499999997
aF-8.8917468700000004
aF-8.8927021100000001
aF-8.8992152999999998
aF-8.9112661899999992
aF-8.9283216500000009
aF-8.9494300100000004
aF-8.9739685999999992
aF-9.0021870800000006
aF-9.03459389
aF-9.0701328399999994
aF-9.1049972500000003
aF-9.1348068599999994
aF-9.1577066200000008
aF-9.1740130600000001
aF-9.1850427099999994
aF-9.1953344000000001
aF-9.2109094599999999
aF-9.23073999
aF-9.2498330699999993
aF-9.2684121600000005
aF-9.28621257
aF-9.3030787999999998
aF-9.3202911900000007
aF-9.3388343299999992
aF-9.3583029700000004
aF-9.3788875899999997
aF-9.4022700799999992
aF-9.4200392999999991
aF-9.4378324800000009
aF-9.4632536300000005
aF-9.4846632199999998
aF-9.5113158299999991
aF-9.5276122300000008
aF-9.5491884200000001
aF-9.5715313700000006
aF-9.5899135700000002
aF-9.6064160300000001
aF-9.6290297500000008
aF-9.6498244
aF-9.6694903599999993
aF-9.6893282200000002
aF-9.7117648600000006
aF-9.7363995699999997
aF-9.7625548599999998
aF-9.7895251699999992
aF-9.8177855100000002
aF-9.8468493699999993
aF-9.8762451200000001
aF-9.9059600700000008
aF-9.9365255900000005
aF-9.9683195199999997
aF-10.0013836
aF-10.0356381
aF-10.070733300000001
aF-10.1050909
aF-10.1358683
aF-10.1596192
aF-10.1760831
aF-10.1929806
aF-10.219724100000001
aF-10.245821299999999
aF-10.241698899999999
aF-10.272179
aF-10.327960600000001
aF-10.362629099999999
aF-10.407224899999999
aF-10.4431174
aF-10.467934
aF-10.5012679
aF-10.529518899999999
aF-10.557582999999999
aF-10.5828796
aF-10.596655500000001
aF-10.602980799999999
aF-10.636374399999999
aF-10.673318399999999
aF-10.7020669
aF-10.7390989
aF-10.7896634
aF-10.8227875
aF-10.847191799999999
aF-10.8853407
aF-10.9098834
aF-10.9151372
aF-10.931385799999999
aF-10.9564428
aF-10.972134199999999
aF-10.9919379
aF-11.0210679
aF-11.040941800000001
aF-11.055140700000001
aF-11.080730300000001
aF-11.1030389
aF-11.104100900000001
aF-11.108100200000001
aF-11.126545699999999
aF-11.131563399999999
aF-11.117291399999999
aF-11.118629
aF-11.1344721
aF-11.139500399999999
aF-11.1325694
aF-11.1377816
aF-11.1557794
aF-11.1690507
aF-11.1695238
aF-11.176436199999999
aF-11.1962303
aF-11.214017999999999
aF-11.2178872
aF-11.22687
aF-11.2502467
aF-11.269497100000001
aF-11.2721663
aF-11.284084
aF-11.3117138
aF-11.3255868
aF-11.326326
aF-11.347728399999999
aF-11.3771153
aF-11.376742800000001
aF-11.382605099999999
aF-11.417111999999999
aF-11.4310493
aF-11.421893300000001
aF-11.448331599999999
aF-11.4830422
aF-11.4710079
aF-11.477202800000001
aF-11.5215417
aF-11.525407899999999
aF-11.510353500000001
aF-11.547141999999999
aF-11.5838073
aF-11.556861400000001
aF-11.565595099999999
aF-11.6226129
aF-11.6206549
aF-11.5925475
aF-11.628303799999999
aF-11.6792561
aF-11.6493815
aF-11.637862399999999
aF-11.6754876
aF-11.698744100000001
aF-11.6703578
aF-11.6722161
aF-11.683884900000001
aF-11.6977239
aF-11.686880800000001
aF-11.690218
aF-11.702310199999999
aF-11.7266128
aF-11.718116500000001
aF-11.732286
aF-11.761139099999999
aF-11.7867926
aF-11.770838400000001
aF-11.818587300000001
aF-11.8517314
aF-11.8275769
aF-11.8514438
aF-11.894717
aF-11.8782412
aF-11.9436
aF-11.9603012
aF-11.9287917
aF-12.0196991
aF-12.023239200000001
aF-11.9833658
aF-12.0766285
aF-12.0818221
aF-12.0655684
aF-12.1179074
aF-12.113376000000001
aF-12.1300787
aF-12.1435624
aF-12.1577827
aF-12.1752018
aF-12.1659208
aF-12.1715593
aF-12.202067100000001
aF-12.2061919
aF-12.239418199999999
aF-12.245763
aF-12.218621600000001
aF-12.259658399999999
aF-12.282103299999999
aF-12.2982076
aF-12.3050981
aF-12.345916300000001
aF-12.348317099999999
aF-12.321909399999999
aF-12.370055499999999
aF-12.386737500000001
aF-12.4130539
aF-12.404019699999999
aF-12.4444461
aF-12.4366541
aF-12.5059871
aF-12.4796776
aF-12.4983147
aF-12.5375687
aF-12.5554302
aF-12.501685999999999
aF-12.570004600000001
aF-12.5929714
aF-12.613029900000001
aF-12.5775784
aF-12.638241799999999
aF-12.650748099999999
aF-12.6707138
aF-12.6393202
aF-12.6863096
aF-12.718368
aF-12.693486699999999
aF-12.738528499999999
aF-12.725683399999999
aF-12.6922119
aF-12.788382500000001
aF-12.785578599999999
aF-12.738201399999999
aF-12.8034342
aF-12.8402017
aF-12.763166200000001
aF-12.8212744
aF-12.878206799999999
aF-12.815576800000001
aF-12.8516703
aF-12.912321199999999
aF-12.901325999999999
aF-12.965865300000001
aF-12.9436771
aF-12.910686699999999
aF-13.009196299999999
aF-12.9997601
aF-12.968103599999999
aF-12.986947300000001
aF-13.0536276
aF-13.0706633
aF-13.034697700000001
aF-13.0912351
aF-13.065023800000001
aF-13.140682699999999
aF-13.1694157
aF-13.102338400000001
aF-13.1497739
aF-13.191357500000001
aF-13.249713
aF-13.269043999999999
aF-13.2287245
aF-13.284778599999999
aF-13.2881371
aF-13.1925308
aF-13.28877
aF-13.3489603
aF-13.3637424
aF-13.3331766
aF-13.359274600000001
aF-13.341315099999999
aF-13.368722999999999
aF-13.384401799999999
aaa(lp103
S'Res_Flow[3]'
p104
a(lp105
F-6.9936293899999997
aF-7.0444926900000002
aF-7.0505728100000002
aF-7.0149916000000001
aF-6.9707137299999999
aF-6.9393256599999997
aF-6.9115060599999998
aF-6.8837149000000002
aF-6.8651330399999999
aF-6.8542498500000004
aF-6.8497738000000004
aF-6.8501529799999998
aF-6.8536593699999999
aF-6.8589554699999997
aF-6.8652445499999999
aF-6.8719272299999998
aF-6.8782974899999996
aF-6.8835867200000003
aF-6.8872663699999999
aF-6.8893273700000002
aF-6.8903067399999998
aF-6.8910532399999997
aF-6.8925242200000003
aF-6.8957352199999997
aF-6.90185315
aF-6.9123574400000001
aF-6.9292040899999998
aF-6.9550551
aF-6.9937836100000004
aF-7.0509616900000003
aF-7.1284806400000003
aF-7.1974526000000001
aF-7.2335651600000004
aF-7.2572125999999999
aF-7.2794939300000001
aF-7.2980899499999996
aF-7.3077975500000001
aF-7.31190272
aF-7.3153246100000002
aF-7.31879422
aF-7.3209682100000002
aF-7.3216821000000003
aF-7.3215508900000001
aF-7.3208387699999999
aF-7.3197283200000003
aF-7.3186612899999997
aF-7.3180774900000003
aF-7.3182719699999996
aF-7.31952333
aF-7.3221140299999998
aF-7.3262668399999997
aF-7.3321659500000003
aF-7.3400016199999998
aF-7.3499568899999996
aF-7.3621822699999999
aF-7.3768024499999996
aF-7.3939321900000001
aF-7.4136868199999997
aF-7.4362030099999998
aF-7.4616721500000001
aF-7.4903549099999998
aF-7.5225718300000004
aF-7.5586653000000004
aF-7.59889641
aF-7.6431520600000002
aF-7.6900266000000004
aF-7.7343752200000004
aF-7.76332456
aF-7.7621740800000003
aF-7.7400296900000001
aF-7.7173619499999999
aF-7.7030390999999998
aF-7.69703129
aF-7.6955036000000003
aF-7.6994805199999998
aF-7.7100398800000001
aF-7.7231011399999998
aF-7.7366076499999998
aF-7.7490203500000003
aF-7.75841008
aF-7.7657547400000002
aF-7.7724962900000003
aF-7.77937615
aF-7.7866262099999997
aF-7.7942929799999998
aF-7.8025126599999997
aF-7.8114917699999999
aF-7.8214639500000001
aF-7.8326774400000003
aF-7.8453944099999999
aF-7.8598552100000001
aF-7.8762137599999997
aF-7.89450962
aF-7.9146857199999996
aF-7.9366117999999997
aF-7.9600802499999999
aF-7.9847354599999996
aF-8.0098980900000001
aF-8.03419259
aF-8.0548481699999996
aF-8.0682866700000009
aF-8.0728884900000004
aF-8.0688061100000006
aF-8.0618249300000002
aF-8.0568203
aF-8.0555914299999998
aF-8.0580937099999996
aF-8.0646813099999992
aF-8.0755985100000007
aF-8.0904770399999997
aF-8.1085509099999999
aF-8.1292105499999998
aF-8.1524353499999993
aF-8.1785276200000006
aF-8.2070638500000008
aF-8.2360249200000002
aF-8.26277683
aF-8.2859850500000007
aF-8.3054071599999997
aF-8.3213679900000006
aF-8.3369620199999996
aF-8.3567414400000004
aF-8.3798763300000001
aF-8.4027008999999993
aF-8.4257414100000005
aF-8.4483089800000002
aF-8.4700161499999993
aF-8.4915676700000002
aF-8.5136141799999994
aF-8.5357324600000002
aF-8.5580063699999993
aF-8.5817800099999992
aF-8.6015307399999994
aF-8.6226099200000004
aF-8.6477372900000002
aF-8.6698627199999994
aF-8.6955749900000008
aF-8.7124355999999992
aF-8.7334496999999995
aF-8.7569396099999999
aF-8.7740007700000007
aF-8.7931697900000003
aF-8.8143699899999994
aF-8.8353397600000001
aF-8.8547397399999994
aF-8.8750385600000001
aF-8.8971665299999998
aF-8.9212176799999998
aF-8.9463587499999999
aF-8.9723944000000007
aF-8.9996647599999999
aF-9.0279369200000001
aF-9.0566859599999994
aF-9.0860550199999999
aF-9.1163880099999997
aF-9.1479950199999998
aF-9.1808144800000004
aF-9.2148670199999998
aF-9.2498469700000001
aF-9.2844092000000007
aF-9.3162889700000004
aF-9.3427524999999996
aF-9.3633145399999993
aF-9.3833082900000004
aF-9.4096186599999996
aF-9.4347448899999993
aF-9.43696321
aF-9.4677886000000004
aF-9.5146273499999996
aF-9.5496396699999995
aF-9.5876522000000008
aF-9.6224509400000002
aF-9.6475379300000004
aF-9.6812173000000001
aF-9.7061887500000008
aF-9.7333666000000001
aF-9.7564001499999993
aF-9.7699301399999996
aF-9.7780614000000003
aF-9.8089252200000008
aF-9.8400089400000006
aF-9.8637568899999994
aF-9.8946274499999998
aF-9.9350577199999996
aF-9.9613982399999994
aF-9.9826221799999999
aF-10.0148712
aF-10.03398
aF-10.039528499999999
aF-10.055318400000001
aF-10.075858200000001
aF-10.088147599999999
aF-10.1051936
aF-10.129619699999999
aF-10.1455257
aF-10.158189800000001
aF-10.180945299999999
aF-10.1993802
aF-10.2020132
aF-10.209742200000001
aF-10.2280534
aF-10.2329247
aF-10.2250339
aF-10.230760500000001
aF-10.2467088
aF-10.2519405
aF-10.2491059
aF-10.257081100000001
aF-10.274610600000001
aF-10.2864746
aF-10.289137699999999
aF-10.298143400000001
aF-10.3168436
aF-10.3321162
aF-10.337351099999999
aF-10.347758300000001
aF-10.368736200000001
aF-10.3846226
aF-10.389208
aF-10.4019818
aF-10.425569599999999
aF-10.437255199999999
aF-10.4411931
aF-10.4611257
aF-10.484743399999999
aF-10.487057200000001
aF-10.495796500000001
aF-10.5249082
aF-10.536645200000001
aF-10.534746500000001
aF-10.558695800000001
aF-10.586088
aF-10.5813375
aF-10.591237
aF-10.627456799999999
aF-10.632254400000001
aF-10.6274269
aF-10.6591779
aF-10.6871419
aF-10.672587200000001
aF-10.6847894
aF-10.730756100000001
aF-10.7294772
aF-10.7153677
aF-10.7480691
aF-10.786243600000001
aF-10.765936399999999
aF-10.7633347
aF-10.798990699999999
aF-10.8153208
aF-10.796027199999999
aF-10.8024518
aF-10.818664500000001
aF-10.8303934
aF-10.822460299999999
aF-10.8291655
aF-10.843802500000001
aF-10.864582499999999
aF-10.8577736
aF-10.872723199999999
aF-10.8960901
aF-10.9189673
aF-10.904633799999999
aF-10.9449232
aF-10.9707344
aF-10.952743999999999
aF-10.9693609
aF-11.014188900000001
aF-10.994741700000001
aF-11.042202700000001
aF-11.0668574
aF-11.039262600000001
aF-11.1040109
aF-11.117386099999999
aF-11.0854435
aF-11.1547313
aF-11.165251100000001
aF-11.1547965
aF-11.197578999999999
aF-11.1986682
aF-11.214007000000001
aF-11.231233700000001
aF-11.243207200000001
aF-11.260974600000001
aF-11.258039699999999
aF-11.266368999999999
aF-11.2937435
aF-11.2966678
aF-11.3228951
aF-11.3341204
aF-11.315401
aF-11.3512439
aF-11.3681585
aF-11.380292900000001
aF-11.393174
aF-11.417597900000001
aF-11.426515200000001
aF-11.414280099999999
aF-11.449797200000001
aF-11.467746699999999
aF-11.4840746
aF-11.488784799999999
aF-11.5129538
aF-11.520993499999999
aF-11.5608773
aF-11.552730199999999
aF-11.5702607
aF-11.598220700000001
aF-11.6164308
aF-11.588462
aF-11.6402524
aF-11.654040200000001
aF-11.676611100000001
aF-11.6606668
aF-11.7068619
aF-11.715755400000001
aF-11.736880599999999
aF-11.7216764
aF-11.761388999999999
aF-11.783231000000001
aF-11.770955300000001
aF-11.8141829
aF-11.8024381
aF-11.788603699999999
aF-11.8587483
aF-11.854157499999999
aF-11.829712600000001
aF-11.8862334
aF-11.9076246
aF-11.8591783
aF-11.9121422
aF-11.9492431
aF-11.9081522
aF-11.943029900000001
aF-11.9833944
aF-11.9802347
aF-12.037478500000001
aF-12.0184371
aF-12.0053395
aF-12.081035999999999
aF-12.0709988
aF-12.0584209
aF-12.0831705
aF-12.1327795
aF-12.1431947
aF-12.1259253
aF-12.1707711
aF-12.156575
aF-12.222147700000001
aF-12.2354837
aF-12.1935626
aF-12.2455008
aF-12.2709514
aF-12.3171239
aF-12.3332984
aF-12.3167904
aF-12.3658576
aF-12.3699245
aF-12.307303900000001
aF-12.3794244
aF-12.4294119
aF-12.442198899999999
aF-12.4355764
aF-12.4557269
aF-12.4483709
aF-12.477924399999999
aF-12.4848441
aaa(lp106
S'Res_Flow[4]'
p107
a(lp108
F0
aF0
aF0
aF0
aF0
aF0
aF0
aF0
aF0
aF0
aF0
aF0
aF0
aF0
aF0
aF0
aF0
aF0
aF0
aF0
aF0
aF0
aF0
aF0
aF0
aF0
aF0
aF0
aF0
aF0
aF0
aF0
aF0
aF0
aF0
aF0
aF0
aF0
aF0
aF0
aF0
aF0
aF0
aF0
aF0
aF0
aF0
aF0
aF0
aF0
aF0
aF0
aF0
aF0
aF0
aF0
aF0
aF0
aF0
aF0
aF0
aF0
aF0
aF0
aF0
aF0
aF0
aF0
aF0
aF0
aF0
aF0
aF0
aF0
aF0
aF0
aF0
aF0
aF0
aF0
aF0
aF0
aF0
aF0
aF0
aF0
aF0
aF0
aF0
aF0
aF0
aF0
aF0
aF0
aF0
aF0
aF0
aF0
aF0
aF0
aF0
aF0
aF0
aF0
aF0
aF0
aF0
aF0
aF0
aF0
aF0
aF0
aF0
aF0
aF0
aF0
aF0
aF0
aF0
aF0
aF0
aF0
aF0
aF0
aF0
aF0
aF0
aF0
aF0
aF0
aF0
aF0
aF0
aF0
aF0
aF0
aF0
aF0
aF0
aF0
aF0
aF0
aF0
aF0
aF0
aF0
aF0
aF0
aF0
aF0
aF0
aF0
aF0
aF0
aF0
aF0
aF0
aF0
aF0
aF0
aF0
aF0
aF0
aF0
aF0
aF0
aF0
aF0
aF0
aF0
aF0
aF0
aF0
aF0
aF0
aF0
aF0
aF0
aF0
aF0
aF0
aF0
aF0
aF0
aF0
aF0
aF0
aF0
aF0
aF0
aF0
aF0
aF0
aF0
aF0
aF0
aF0
aF0
aF0
aF0
aF0
aF0
aF0
aF0
aF0
aF0
aF0
aF0
aF0
aF0
aF0
aF0
aF0
aF0
aF0
aF0
aF0
aF0
aF0
aF0
aF0
aF0
aF0
aF0
aF0
aF0
aF0
aF0
aF0
aF0
aF0
aF0
aF0
aF0
aF0
aF0
aF0
aF0
aF0
aF0
aF0
aF0
aF0
aF0
aF0
aF0
aF0
aF0
aF0
aF0
aF0
aF0
aF0
aF0
aF0
aF0
aF0
aF0
aF0
aF0
aF0
aF0
aF0
aF0
aF0
aF0
aF0
aF0
aF0
aF0
aF0
aF0
aF0
aF0
aF0
aF0
aF0
aF0
aF0
aF0
aF0
aF0
aF0
aF0
aF0
aF0
aF0
aF0
aF0
aF0
aF0
aF0
aF0
aF0
aF0
aF0
aF0
aF0
aF0
aF0
aF0
aF0
aF0
aF0
aF0
aF0
aF0
aF0
aF0
aF0
aF0
aF0
aF0
aF0
aF0
aF0
aF0
aF0
aF0
aF0
aF0
aF0
aF0
aF0
aF0
aF0
aF0
aF0
aF0
aF0
aF0
aF0
aF0
aF0
aF0
aF0
aF0
aF0
aF0
aF0
aF0
aF0
aF0
aF0
aF0
aF0
aF0
aF0
aF0
aF0
aF0
aF0
aF0
aF0
aF0
aF0
aF0
aF0
aF0
aF0
aF0
aF0
aF0
aF0
aF0
aF0
aF0
aaa(lp109
S'Linear_Solver_Iterations'
p110
a(lp111
F2
aF2
aF2
aF2
aF2
aF2
aF2
aF2
aF2
aF2
aF2
aF2
aF2
aF2
aF2
aF2
aF2
aF2
aF2
aF2
aF2
aF2
aF2
aF2
aF2
aF2
aF2
aF2
aF2
aF2
aF2
aF2
aF2
aF2
aF2
aF2
aF2
aF2
aF2
aF2
aF2
aF2
aF2
aF2
aF2
aF2
aF2
aF2
aF2
aF2
aF2
aF2
aF2
aF2
aF2
aF2
aF2
aF2
aF2
aF2
aF2
aF2
aF2
aF2
aF2
aF2
aF2
aF2
aF2
aF2
aF2
aF2
aF2
aF2
aF2
aF2
aF2
aF2
aF2
aF2
aF2
aF2
aF2
aF2
aF2
aF2
aF2
aF2
aF2
aF2
aF2
aF2
aF2
aF2
aF2
aF2
aF2
aF2
aF2
aF2
aF2
aF2
aF2
aF2
aF2
aF2
aF2
aF2
aF2
aF2
aF2
aF2
aF2
aF2
aF2
aF2
aF2
aF2
aF2
aF2
aF2
aF2
aF2
aF2
aF2
aF2
aF2
aF2
aF2
aF2
aF2
aF2
aF2
aF2
aF2
aF2
aF2
aF2
aF2
aF2
aF2
aF2
aF2
aF2
aF2
aF2
aF2
aF2
aF2
aF2
aF2
aF2
aF2
aF2
aF2
aF2
aF2
aF2
aF2
aF2
aF2
aF2
aF2
aF2
aF2
aF2
aF2
aF2
aF2
aF2
aF2
aF2
aF2
aF2
aF2
aF2
aF2
aF2
aF2
aF2
aF2
aF2
aF2
aF2
aF2
aF2
aF2
aF2
aF2
aF2
aF2
aF2
aF2
aF2
aF2
aF2
aF2
aF2
aF2
aF2
aF2
aF2
aF2
aF2
aF2
aF2
aF2
aF2
aF2
aF2
aF2
aF2
aF2
aF2
aF2
aF2
aF2
aF2
aF2
aF2
aF2
aF2
aF2
aF2
aF2
aF2
aF2
aF2
aF2
aF2
aF2
aF2
aF2
aF2
aF2
aF2
aF2
aF2
aF2
aF2
aF2
aF2
aF2
aF2
aF2
aF2
aF2
aF2
aF2
aF2
aF2
aF2
aF2
aF2
aF2
aF2
aF2
aF2
aF2
aF2
aF2
aF2
aF2
aF2
aF2
aF2
aF2
aF2
aF2
aF2
aF2
aF2
aF2
aF2
aF2
aF2
aF2
aF2
aF2
aF2
aF2
aF2
aF2
aF2
aF2
aF2
aF2
aF2
aF2
aF2
aF2
aF2
aF2
aF2
aF2
aF2
aF2
aF2
aF2
aF2
aF2
aF2
aF2
aF2
aF2
aF2
aF2
aF2
aF2
aF2
aF2
aF2
aF2
aF2
aF2
aF2
aF2
aF2
aF2
aF2
aF2
aF2
aF2
aF2
aF2
aF2
aF2
aF2
aF2
aF2
aF2
aF2
aF2
aF2
aF2
aF2
aF2
aF2
aF2
aF2
aF2
aF2
aF2
aF2
aF2
aF2
aF2
aF2
aF2
aF2
aF2
aF2
aF2
aF2
aF2
aF2
aF2
aF2
aF2
aF2
aF2
aF2
aF2
aF2
aF2
aF2
aF2
aaa(lp112
S'CFL_Number'
p113
a(lp114
F10
aF10
aF10
aF10
aF10
aF10
aF10
aF10
aF10
aF10
aF10
aF10
aF10
aF10
aF10
aF10
aF10
aF10
aF10
aF10
aF10
aF10
aF10
aF10
aF10
aF10
aF10
aF10
aF10
aF10
aF10
aF10
aF10
aF10
aF10
aF10
aF10
aF10
aF10
aF10
aF10
aF10
aF10
aF10
aF10
aF10
aF10
aF10
aF10
aF10
aF10
aF10
aF10
aF10
aF10
aF10
aF10
aF10
aF10
aF10
aF10
aF10
aF10
aF10
aF10
aF10
aF10
aF10
aF10
aF10
aF10
aF10
aF10
aF10
aF10
aF10
aF10
aF10
aF10
aF10
aF10
aF10
aF10
aF10
aF10
aF10
aF10
aF10
aF10
aF10
aF10
aF10
aF10
aF10
aF10
aF10
aF10
aF10
aF10
aF10
aF10
aF10
aF10
aF10
aF10
aF10
aF10
aF10
aF10
aF10
aF10
aF10
aF10
aF10
aF10
aF10
aF10
aF10
aF10
aF10
aF10
aF10
aF10
aF10
aF10
aF10
aF10
aF10
aF10
aF10
aF10
aF10
aF10
aF10
aF10
aF10
aF10
aF10
aF10
aF10
aF10
aF10
aF10
aF10
aF10
aF10
aF10
aF10
aF10
aF10
aF10
aF10
aF10
aF10
aF10
aF10
aF10
aF10
aF10
aF10
aF10
aF10
aF10
aF10
aF10
aF10
aF10
aF10
aF10
aF10
aF10
aF10
aF10
aF10
aF10
aF10
aF10
aF10
aF10
aF10
aF10
aF10
aF10
aF10
aF10
aF10
aF10
aF10
aF10
aF10
aF10
aF10
aF10
aF10
aF10
aF10
aF10
aF10
aF10
aF10
aF10
aF10
aF10
aF10
aF10
aF10
aF10
aF10
aF10
aF10
aF10
aF10
aF10
aF10
aF10
aF10
aF10
aF10
aF10
aF10
aF10
aF10
aF10
aF10
aF10
aF10
aF10
aF10
aF10
aF10
aF10
aF10
aF10
aF10
aF10
aF10
aF10
aF10
aF10
aF10
aF10
aF10
aF10
aF10
aF10
aF10
aF10
aF10
aF10
aF10
aF10
aF10
aF10
aF10
aF10
aF10
aF10
aF10
aF10
aF10
aF10
aF10
aF10
aF10
aF10
aF10
aF10
aF10
aF10
aF10
aF10
aF10
aF10
aF10
aF10
aF10
aF10
aF10
aF10
aF10
aF10
aF10
aF10
aF10
aF10
aF10
aF10
aF10
aF10
aF10
aF10
aF10
aF10
aF10
aF10
aF10
aF10
aF10
aF10
aF10
aF10
aF10
aF10
aF10
aF10
aF10
aF10
aF10
aF10
aF10
aF10
aF10
aF10
aF10
aF10
aF10
aF10
aF10
aF10
aF10
aF10
aF10
aF10
aF10
aF10
aF10
aF10
aF10
aF10
aF10
aF10
aF10
aF10
aF10
aF10
aF10
aF10
aF10
aF10
aF10
aF10
aF10
aF10
aF10
aF10
aF10
aF10
aF10
aF10
aF10
aF10
aF10
aF10
aF10
aF10
aF10
aF10
aF10
aF10
aF10
aF10
aF10
aF10
aF10
aF10
aF10
aF10
aaa(lp115
S'TIME'
p116
a(lp117
F0.00032916469999999998
aF0.00064924959999999995
aF0.00093613469999999995
aF0.0012116830000000001
aF0.0015205145000000001
aF0.0018385331000000001
aF0.0021248341
aF0.0024638335000000001
aF0.0028138677000000001
aF0.0030970175999999999
aF0.0033968012000000001
aF0.0036901514000000002
aF0.0039702176999999996
aF0.0042659322000000001
aF0.0045456011999999999
aF0.0048223494999999998
aF0.0050964831999999998
aF0.0053584655000000004
aF0.0056277990000000002
aF0.0059318662000000001
aF0.0064133643999999997
aF0.0068402011999999998
aF0.0073715329
aF0.0078988988999999996
aF0.0085286497999999995
aF0.0088796654999999999
aF0.0092116316000000007
aF0.0095461329000000004
aF0.0099828322999999993
aF0.010433133400000001
aF0.0108983
aF0.011229968099999999
aF0.0114990671
aF0.011769600700000001
aF0.012150665099999999
aF0.012513784599999999
aF0.0127772649
aF0.0130650679
aF0.013312299999999999
aF0.0135708332
aF0.0138372342
aF0.0141112645
aF0.0143935005
aF0.0146538337
aF0.014916666300000001
aF0.0151874344
aF0.0154506644
aF0.015716715700000002
aF0.016040782100000001
aF0.0164329847
aF0.016795734600000001
aF0.017059799
aF0.017380948899999998
aF0.0176435312
aF0.017901333200000001
aF0.018167734099999999
aF0.0184322476
aF0.018701799700000001
aF0.018970565000000002
aF0.0192311168
aF0.019489932099999999
aF0.019832515700000001
aF0.020123148
aF0.020393415299999999
aF0.020655099600000001
aF0.020923582699999999
aF0.021187547800000001
aF0.021447332699999998
aF0.021704550600000001
aF0.021964665299999998
aF0.022228316500000001
aF0.022490449700000002
aF0.022760514400000001
aF0.023117017699999999
aF0.023419749699999999
aF0.023787816400000002
aF0.024253865100000001
aF0.024680749599999999
aF0.025011984500000001
aF0.025300399500000001
aF0.025588882
aF0.025852815299999998
aF0.026116248000000002
aF0.026371300199999999
aF0.026633199100000001
aF0.026893683299999999
aF0.027156734500000002
aF0.027417532599999999
aF0.027685014399999999
aF0.0279517333
aF0.028229264399999999
aF0.028493865300000001
aF0.028806614899999999
aF0.029105897700000001
aF0.029402164599999999
aF0.029684050900000002
aF0.029947348400000001
aF0.0302044312
aF0.030465134000000001
aF0.030739649099999999
aF0.031019683700000002
aF0.031282949400000003
aF0.031550101400000002
aF0.031869749199999999
aF0.032147900299999997
aF0.032417849700000001
aF0.0326846321
aF0.032944464700000002
aF0.033208517200000003
aF0.033500917800000002
aF0.0337673982
aF0.034109250700000003
aF0.034523383800000002
aF0.034925965500000003
aF0.035354566599999998
aF0.035789565199999998
aF0.036224798400000001
aF0.0366307497
aF0.036922566099999998
aF0.037225933900000001
aF0.037526933399999997
aF0.037814648899999997
aF0.0383089821
aF0.038743833700000001
aF0.039140284099999999
aF0.039564482400000003
aF0.040001634799999998
aF0.040716667999999998
aF0.041321031299999998
aF0.041821165899999999
aF0.0421962341
aF0.042488551100000001
aF0.042827049899999997
aF0.043121898200000001
aF0.043408250799999999
aF0.043694818000000003
aF0.043968514600000001
aF0.044278315700000001
aF0.044586249199999997
aF0.044874982000000001
aF0.045169381299999999
aF0.0454886158
aF0.045796100300000003
aF0.046098049500000002
aF0.046387533299999999
aF0.0466666341
aF0.046930484000000001
aF0.047206231000000001
aF0.047471634499999998
aF0.047778801099999997
aF0.0480630477
aF0.048347699600000002
aF0.048635748999999999
aF0.048915100099999997
aF0.049199147999999998
aF0.049487117900000002
aF0.049765698099999998
aF0.050032798400000002
aF0.050318280899999998
aF0.050594782800000002
aF0.050935216700000001
aF0.051219733599999998
aF0.051488932000000001
aF0.051830951399999999
aF0.0520948013
aF0.052375614600000002
aF0.052652482200000003
aF0.052940916999999997
aF0.053225998099999998
aF0.053490316900000001
aF0.053776947700000001
aF0.0540332834
aF0.054313500700000003
aF0.054564917099999999
aF0.054874384399999997
aF0.055148764500000003
aF0.055442651099999997
aF0.055720134599999999
aF0.055987481300000003
aF0.056262683899999999
aF0.056539630899999999
aF0.0568146348
aF0.057118097899999998
aF0.057542967799999997
aF0.057961181799999997
aF0.058348480899999999
aF0.058661333699999998
aF0.058934899200000002
aF0.059217015900000003
aF0.0595169147
aF0.059784483899999998
aF0.060058017599999999
aF0.060341684
aF0.060618301200000002
aF0.060923647900000003
aF0.061211514500000001
aF0.061793665099999999
aF0.062293314900000001
aF0.062723648500000007
aF0.063154200699999996
aF0.063491165599999996
aF0.063790134600000006
aF0.064106917400000005
aF0.064409617599999996
aF0.064684299599999995
aF0.064972599300000003
aF0.065287284099999995
aF0.065615415600000004
aF0.065932599699999997
aF0.066215014500000002
aF0.066497131200000004
aF0.066788415099999998
aF0.067082166700000001
aF0.067341999200000002
aF0.067732214900000004
aF0.0681490342
aF0.068558784299999995
aF0.068925714499999999
aF0.069321914499999998
aF0.069764065700000003
aF0.070178615999999999
aF0.070484948199999994
aF0.070744133000000001
aF0.071034582499999999
aF0.071306633899999999
aF0.071586914900000007
aF0.071863297600000001
aF0.072130397999999998
aF0.072401849399999996
aF0.072679666700000006
aF0.0729376157
aF0.073231915600000003
aF0.073647165299999998
aF0.074087432999999994
aF0.074522117799999996
aF0.074875299100000001
aF0.075182350499999995
aF0.075468850099999998
aF0.075747482000000005
aF0.076092084199999993
aF0.076350466399999997
aF0.076635384599999995
aF0.076910400399999995
aF0.077176717899999997
aF0.0774671475
aF0.077722799800000006
aF0.077991815399999997
aF0.078259849500000006
aF0.078559498000000005
aF0.078877433100000005
aF0.079204217600000001
aF0.080316666800000006
aF0.080581033199999999
aF0.080888048800000001
aF0.081157616799999999
aF0.081415148600000001
aF0.081698751400000005
aF0.081995034199999997
aF0.082260914599999999
aF0.0825182676
aF0.082805017600000003
aF0.083095200899999999
aF0.083446315899999998
aF0.083747732599999999
aF0.084032098499999999
aF0.084314747699999998
aF0.084633465599999999
aF0.084912931900000002
aF0.085380931699999996
aF0.085819164899999995
aF0.086179900200000006
aF0.086511464900000001
aF0.086775600899999999
aF0.087063447599999996
aF0.087322966299999999
aF0.087615915099999997
aF0.087893048900000006
aF0.088166133600000002
aF0.088428481399999995
aF0.088746865600000002
aF0.089011017499999998
aF0.089272399700000005
aF0.089553133600000001
aF0.089833581400000001
aF0.090096914799999997
aF0.090458714999999995
aF0.090903234499999999
aF0.091313397899999996
aF0.091631817800000001
aF0.091935066400000001
aF0.092244350899999994
aF0.092546498800000002
aF0.092845515399999995
aF0.093141464399999999
aF0.093446950099999995
aF0.093731915999999998
aF0.094024749599999999
aF0.0943198482
aF0.094633781900000005
aF0.094919466999999993
aF0.0952099681
aF0.095599734800000002
aF0.095935301000000001
aF0.096226314699999996
aF0.096520634499999994
aF0.096819547800000003
aF0.0971203645
aF0.097411314600000007
aF0.097701632999999996
aF0.097995301100000001
aF0.098288150599999999
aF0.098574332400000006
aF0.098861114200000003
aF0.099149131799999998
aF0.099462982000000005
aF0.099742766199999999
aF0.1000631332
aF0.1003562848
aF0.1006408334
aF0.1009314338
aF0.10126611789999999
aF0.1015497843
aF0.1018285513
aF0.1021087329
aF0.10240019960000001
aF0.10266923109999999
aF0.1029635827
aF0.1032235821
aF0.1034911672
aF0.1037576477
aF0.1040282488
aF0.10429681540000001
aF0.1045693318
aF0.1048419476
aF0.105119884
aF0.105386881
aF0.1056551655
aF0.10592370030000001
aF0.10619368160000001
aF0.10646711590000001
aF0.10681423349999999
aF0.1072238326
aF0.1077279329
aF0.10816408399999999
aF0.1084663153
aF0.10874736710000001
aF0.10901361699999999
aF0.1092707515
aF0.10953501459999999
aF0.10979826450000001
aF0.1100674311
aF0.1103382826
aF0.1106068174
aF0.11086281539999999
aF0.11112536589999999
aF0.1113895178
aF0.11165634789999999
aF0.1119260987
aF0.1122491479
aF0.112553215
aF0.1128237486
aF0.1131098668
aF0.113369151
aF0.11362940069999999
aF0.1138975342
aF0.11415666739999999
aF0.1144420981
aaatRp118
(dp119
g20
I01
sbaatRp120
(dp121
g20
I01
sbaatRp122
(dp123
g20
I01
sS'_timestamp'
p124
F1510597598.710331
sbsS'folder'
p125
S'DESIGNS/DSN_017'
p126
sS'config'
p127
cSU2.io.config
Config
p128
((lp129
(lp130
S'PHYSICAL_PROBLEM'
p131
aS'EULER'
p132
aa(lp133
S'MATH_PROBLEM'
p134
ag13
aa(lp135
S'RESTART_SOL'
p136
aS'YES'
p137
aa(lp138
S'MACH_NUMBER'
p139
aF0.80000000000000004
aa(lp140
S'AOA'
p141
aS'1.25'
p142
aa(lp143
S'FREESTREAM_PRESSURE'
p144
aS'101325.0'
p145
aa(lp146
S'FREESTREAM_TEMPERATURE'
p147
aS'288.15'
p148
aa(lp149
S'REF_ORIGIN_MOMENT_X'
p150
aS'0.25'
p151
aa(lp152
S'REF_ORIGIN_MOMENT_Y'
p153
aS'0.00'
p154
aa(lp155
S'REF_ORIGIN_MOMENT_Z'
p156
aS'0.00'
p157
aa(lp158
S'REF_LENGTH_MOMENT'
p159
aS'1.0'
p160
aa(lp161
S'REF_AREA'
p162
aS'1.0'
p163
aa(lp164
S'REF_DIMENSIONALIZATION'
p165
aS'FREESTREAM_PRESS_EQ_ONE'
p166
aa(lp167
S'MARKER_EULER'
p168
a(lp169
S'airfoil'
p170
aaa(lp171
S'MARKER_FAR'
p172
a(lp173
S'farfield'
p174
aaa(lp175
S'MARKER_PLOTTING'
p176
a(lp177
S'airfoil'
p178
aaa(lp179
S'MARKER_MONITORING'
p180
a(lp181
S'airfoil'
p182
aaa(lp183
S'NUM_METHOD_GRAD'
p184
aS'GREEN_GAUSS'
p185
aa(lp186
S'CFL_NUMBER'
p187
aF10
aa(lp188
S'CFL_ADAPT'
p189
aS'NO'
p190
aa(lp191
S'CFL_ADAPT_PARAM'
p192
aS'( 1.5, 0.5, 1.0, 100.0 )'
p193
aa(lp194
S'RK_ALPHA_COEFF'
p195
aS'( 0.66667, 0.66667, 1.000000 )'
p196
aa(lp197
S'EXT_ITER'
p198
aI1000
aa(lp199
S'LINEAR_SOLVER'
p200
aS'FGMRES'
p201
aa(lp202
S'LINEAR_SOLVER_PREC'
p203
aS'LU_SGS'
p204
aa(lp205
S'LINEAR_SOLVER_ERROR'
p206
aS'1E-4'
p207
aa(lp208
S'LINEAR_SOLVER_ITER'
p209
aS'2'
aa(lp210
S'MGLEVEL'
p211
aS'2'
aa(lp212
S'MGCYCLE'
p213
aS'V_CYCLE'
p214
aa(lp215
S'MG_PRE_SMOOTH'
p216
aS'( 1, 2, 3, 3 )'
p217
aa(lp218
S'MG_POST_SMOOTH'
p219
aS'( 0, 0, 0, 0 )'
p220
aa(lp221
S'MG_CORRECTION_SMOOTH'
p222
aS'( 0, 0, 0, 0 )'
p223
aa(lp224
S'MG_DAMP_RESTRICTION'
p225
aS'1.0'
p226
aa(lp227
S'MG_DAMP_PROLONGATION'
p228
aS'1.0'
p229
aa(lp230
S'CONV_NUM_METHOD_FLOW'
p231
aS'JST'
p232
aa(lp233
S'SLOPE_LIMITER_FLOW'
p234
aS'VENKATAKRISHNAN'
p235
aa(lp236
S'AD_COEFF_FLOW'
p237
aS'( 0.15, 0.5, 0.02 )'
p238
aa(lp239
S'TIME_DISCRE_FLOW'
p240
aS'EULER_IMPLICIT'
p241
aa(lp242
S'OBJECTIVE_FUNCTION'
p243
aS'DRAG'
p244
aa(lp245
S'CONV_NUM_METHOD_ADJFLOW'
p246
aS'JST'
p247
aa(lp248
S'SLOPE_LIMITER_ADJFLOW'
p249
aS'VENKATAKRISHNAN'
p250
aa(lp251
S'AD_COEFF_ADJFLOW'
p252
aS'( 0.15, 0.0, 0.02 )'
p253
aa(lp254
S'TIME_DISCRE_ADJFLOW'
p255
aS'EULER_IMPLICIT'
p256
aa(lp257
S'CFL_REDUCTION_ADJFLOW'
p258
aS'0.8'
p259
aa(lp260
S'LIMIT_ADJFLOW'
p261
aS'1E6'
p262
aa(lp263
S'GEO_MODE'
p264
aS'FUNCTION'
p265
aa(lp266
S'GEO_MARKER'
p267
aS'( airfoil )'
p268
aa(lp269
S'DV_KIND'
p270
a(lp271
S'HICKS_HENNE'
p272
ag272
ag272
ag272
ag272
ag272
ag272
ag272
ag272
ag272
ag272
ag272
ag272
ag272
ag272
ag272
ag272
ag272
ag272
ag272
ag272
ag272
ag272
ag272
ag272
ag272
ag272
ag272
ag272
ag272
ag272
ag272
ag272
ag272
ag272
ag272
ag272
ag272
aaa(lp273
S'DV_MARKER'
p274
a(lp275
S'airfoil'
p276
aaa(lp277
S'DV_PARAM'
p278
a(dp279
S'FFDTAG'
p280
(lp281
(lp282
a(lp283
a(lp284
a(lp285
a(lp286
a(lp287
a(lp288
a(lp289
a(lp290
a(lp291
a(lp292
a(lp293
a(lp294
a(lp295
a(lp296
a(lp297
a(lp298
a(lp299
a(lp300
a(lp301
a(lp302
a(lp303
a(lp304
a(lp305
a(lp306
a(lp307
a(lp308
a(lp309
a(lp310
a(lp311
a(lp312
a(lp313
a(lp314
a(lp315
a(lp316
a(lp317
a(lp318
a(lp319
asS'PARAM'
p320
(lp321
(lp322
F0
aF0.050000000000000003
aa(lp323
F0
aF0.10000000000000001
aa(lp324
F0
aF0.14999999999999999
aa(lp325
F0
aF0.20000000000000001
aa(lp326
F0
aF0.25
aa(lp327
F0
aF0.29999999999999999
aa(lp328
F0
aF0.34999999999999998
aa(lp329
F0
aF0.40000000000000002
aa(lp330
F0
aF0.45000000000000001
aa(lp331
F0
aF0.5
aa(lp332
F0
aF0.55000000000000004
aa(lp333
F0
aF0.59999999999999998
aa(lp334
F0
aF0.65000000000000002
aa(lp335
F0
aF0.69999999999999996
aa(lp336
F0
aF0.75
aa(lp337
F0
aF0.80000000000000004
aa(lp338
F0
aF0.84999999999999998
aa(lp339
F0
aF0.90000000000000002
aa(lp340
F0
aF0.94999999999999996
aa(lp341
F1
aF0.050000000000000003
aa(lp342
F1
aF0.10000000000000001
aa(lp343
F1
aF0.14999999999999999
aa(lp344
F1
aF0.20000000000000001
aa(lp345
F1
aF0.25
aa(lp346
F1
aF0.29999999999999999
aa(lp347
F1
aF0.34999999999999998
aa(lp348
F1
aF0.40000000000000002
aa(lp349
F1
aF0.45000000000000001
aa(lp350
F1
aF0.5
aa(lp351
F1
aF0.55000000000000004
aa(lp352
F1
aF0.59999999999999998
aa(lp353
F1
aF0.65000000000000002
aa(lp354
F1
aF0.69999999999999996
aa(lp355
F1
aF0.75
aa(lp356
F1
aF0.80000000000000004
aa(lp357
F1
aF0.84999999999999998
aa(lp358
F1
aF0.90000000000000002
aa(lp359
F1
aF0.94999999999999996
aasS'SIZE'
p360
(lp361
I1
aI1
aI1
aI1
aI1
aI1
aI1
aI1
aI1
aI1
aI1
aI1
aI1
aI1
aI1
aI1
aI1
aI1
aI1
aI1
aI1
aI1
aI1
aI1
aI1
aI1
aI1
aI1
aI1
aI1
aI1
aI1
aI1
aI1
aI1
aI1
aI1
aI1
asaa(lp362
S'DV_VALUE'
p363
a(lp364
F0.00027641559821989941
aF-9.1031356840106458e-05
aF-0.00033115200311429097
aF-0.00047603920085788587
aF-0.00052275617053682011
aF-0.0004573776103443512
aF-0.0002726118366274196
aF1.7757406239568765e-05
aF0.00037076737441411417
aF0.00071817086011489171
aF0.00098646096528900561
aF0.00112967887470683
aF0.0011590700079880361
aF0.0011443141198011768
aF0.001172388470598676
aF0.0012923810950990406
aF0.0015137492222765051
aF0.0018827855764544225
aF0.0026157487229179341
aF-0.0026753430457576175
aF-0.0034934695980562576
aF-0.0035174752889536574
aF-0.0031756426595726645
aF-0.0026371847952748342
aF-0.0020010977709493541
aF-0.0013449801341382051
aF-0.00073457389155872179
aF-0.0002217037563924102
aF0.00015944601057189776
aF0.00039271297508773362
aF0.00047491201167859073
aF0.00040608728995486547
aF0.00018165838599847183
aF-0.00019721823424077357
aF-0.00067972417919474415
aF-0.0011382449302295759
aF-0.0015194986375169988
aF-0.0021171022359271281
aaa(lp365
S'DEFORM_LINEAR_ITER'
p366
aS'500'
p367
aa(lp368
S'DEFORM_NONLINEAR_ITER'
p369
aS'1'
aa(lp370
S'DEFORM_CONSOLE_OUTPUT'
p371
aS'YES'
p372
aa(lp373
S'DEFORM_TOL_FACTOR'
p374
aS'0.001'
p375
aa(lp376
S'DEFORM_STIFFNESS_TYPE'
p377
aS'INVERSE_VOLUME'
p378
aa(lp379
S'CONV_CRITERIA'
p380
aS'RESIDUAL'
p381
aa(lp382
S'RESIDUAL_REDUCTION'
p383
aS'6'
aa(lp384
S'RESIDUAL_MINVAL'
p385
aS'-13'
p386
aa(lp387
S'STARTCONV_ITER'
p388
aS'10'
p389
aa(lp390
S'CAUCHY_ELEMS'
p391
aS'100'
p392
aa(lp393
S'CAUCHY_EPS'
p394
aS'1E-6'
p395
aa(lp396
S'CAUCHY_FUNC_FLOW'
p397
aS'DRAG'
p398
aa(lp399
S'CAUCHY_FUNC_ADJFLOW'
p400
aS'SENS_GEOMETRY'
p401
aa(lp402
S'MESH_FILENAME'
p403
ag11
aa(lp404
S'MESH_FORMAT'
p405
aS'SU2'
p406
aa(lp407
S'MESH_OUT_FILENAME'
p408
aS'mesh_out.su2'
p409
aa(lp410
S'SOLUTION_FLOW_FILENAME'
p411
ag14
aa(lp412
S'SOLUTION_ADJ_FILENAME'
p413
aS'solution_adj.dat'
p414
aa(lp415
S'OUTPUT_FORMAT'
p416
aS'TECPLOT'
p417
aa(lp418
S'CONV_FILENAME'
p419
aS'history'
p420
aa(lp421
S'RESTART_FLOW_FILENAME'
p422
aS'restart_flow.dat'
p423
aa(lp424
S'RESTART_ADJ_FILENAME'
p425
aS'restart_adj.dat'
p426
aa(lp427
S'VOLUME_FLOW_FILENAME'
p428
aS'flow'
p429
aa(lp430
S'VOLUME_ADJ_FILENAME'
p431
aS'adjoint'
p432
aa(lp433
S'GRAD_OBJFUNC_FILENAME'
p434
aS'of_grad.dat'
p435
aa(lp436
S'SURFACE_FLOW_FILENAME'
p437
aS'surface_flow'
p438
aa(lp439
S'SURFACE_ADJ_FILENAME'
p440
aS'surface_adjoint'
p441
aa(lp442
S'WRT_SOL_FREQ'
p443
aF250
aa(lp444
S'WRT_SOL_FREQ_DUALTIME'
p445
aS'1'
aa(lp446
S'WRT_CON_FREQ'
p447
aS'1'
aa(lp448
S'WRT_CON_FREQ_DUALTIME'
p449
aS'10'
p450
aa(lp451
S'WRT_HALO'
p452
aS'NO'
p453
aa(lp454
S'OPT_OBJECTIVE'
p455
a(dp456
S'DRAG'
p457
(dp458
S'SCALE'
p459
F0.001
ssaa(lp460
S'OPT_CONSTRAINT'
p461
a(dp462
S'INEQUALITY'
p463
ccollections
OrderedDict
p464
((ltRp465
sS'EQUALITY'
p466
g464
((ltRp467
saa(lp468
S'OPT_ITERATIONS'
p469
aS'100'
p470
aa(lp471
S'OPT_ACCURACY'
p472
aS'1E-6'
p473
aa(lp474
S'OPT_BOUND_UPPER'
p475
aS'0.1'
p476
aa(lp477
S'OPT_BOUND_LOWER'
p478
aS'-0.1'
p479
aa(lp480
S'DEFINITION_DV'
p481
a(dp482
S'KIND'
p483
(lp484
g272
ag272
ag272
ag272
ag272
ag272
ag272
ag272
ag272
ag272
ag272
ag272
ag272
ag272
ag272
ag272
ag272
ag272
ag272
ag272
ag272
ag272
ag272
ag272
ag272
ag272
ag272
ag272
ag272
ag272
ag272
ag272
ag272
ag272
ag272
ag272
ag272
ag272
asg459
(lp485
F1
aF1
aF1
aF1
aF1
aF1
aF1
aF1
aF1
aF1
aF1
aF1
aF1
aF1
aF1
aF1
aF1
aF1
aF1
aF1
aF1
aF1
aF1
aF1
aF1
aF1
aF1
aF1
aF1
aF1
aF1
aF1
aF1
aF1
aF1
aF1
aF1
aF1
asg320
(lp486
(lp487
F0
aF0.050000000000000003
aa(lp488
F0
aF0.10000000000000001
aa(lp489
F0
aF0.14999999999999999
aa(lp490
F0
aF0.20000000000000001
aa(lp491
F0
aF0.25
aa(lp492
F0
aF0.29999999999999999
aa(lp493
F0
aF0.34999999999999998
aa(lp494
F0
aF0.40000000000000002
aa(lp495
F0
aF0.45000000000000001
aa(lp496
F0
aF0.5
aa(lp497
F0
aF0.55000000000000004
aa(lp498
F0
aF0.59999999999999998
aa(lp499
F0
aF0.65000000000000002
aa(lp500
F0
aF0.69999999999999996
aa(lp501
F0
aF0.75
aa(lp502
F0
aF0.80000000000000004
aa(lp503
F0
aF0.84999999999999998
aa(lp504
F0
aF0.90000000000000002
aa(lp505
F0
aF0.94999999999999996
aa(lp506
F1
aF0.050000000000000003
aa(lp507
F1
aF0.10000000000000001
aa(lp508
F1
aF0.14999999999999999
aa(lp509
F1
aF0.20000000000000001
aa(lp510
F1
aF0.25
aa(lp511
F1
aF0.29999999999999999
aa(lp512
F1
aF0.34999999999999998
aa(lp513
F1
aF0.40000000000000002
aa(lp514
F1
aF0.45000000000000001
aa(lp515
F1
aF0.5
aa(lp516
F1
aF0.55000000000000004
aa(lp517
F1
aF0.59999999999999998
aa(lp518
F1
aF0.65000000000000002
aa(lp519
F1
aF0.69999999999999996
aa(lp520
F1
aF0.75
aa(lp521
F1
aF0.80000000000000004
aa(lp522
F1
aF0.84999999999999998
aa(lp523
F1
aF0.90000000000000002
aa(lp524
F1
aF0.94999999999999996
aasS'MARKER'
p525
(lp526
(lp527
g276
aa(lp528
S'airfoil'
p529
aa(lp530
S'airfoil'
p531
aa(lp532
S'airfoil'
p533
aa(lp534
S'airfoil'
p535
aa(lp536
S'airfoil'
p537
aa(lp538
S'airfoil'
p539
aa(lp540
S'airfoil'
p541
aa(lp542
S'airfoil'
p543
aa(lp544
S'airfoil'
p545
aa(lp546
S'airfoil'
p547
aa(lp548
S'airfoil'
p549
aa(lp550
S'airfoil'
p551
aa(lp552
S'airfoil'
p553
aa(lp554
S'airfoil'
p555
aa(lp556
S'airfoil'
p557
aa(lp558
S'airfoil'
p559
aa(lp560
S'airfoil'
p561
aa(lp562
S'airfoil'
p563
aa(lp564
S'airfoil'
p565
aa(lp566
S'airfoil'
p567
aa(lp568
S'airfoil'
p569
aa(lp570
S'airfoil'
p571
aa(lp572
S'airfoil'
p573
aa(lp574
S'airfoil'
p575
aa(lp576
S'airfoil'
p577
aa(lp578
S'airfoil'
p579
aa(lp580
S'airfoil'
p581
aa(lp582
S'airfoil'
p583
aa(lp584
S'airfoil'
p585
aa(lp586
S'airfoil'
p587
aa(lp588
S'airfoil'
p589
aa(lp590
S'airfoil'
p591
aa(lp592
S'airfoil'
p593
aa(lp594
S'airfoil'
p595
aa(lp596
S'airfoil'
p597
aa(lp598
S'airfoil'
p599
aa(lp600
S'airfoil'
p601
aasg280
(lp602
(lp603
a(lp604
a(lp605
a(lp606
a(lp607
a(lp608
a(lp609
a(lp610
a(lp611
a(lp612
a(lp613
a(lp614
a(lp615
a(lp616
a(lp617
a(lp618
a(lp619
a(lp620
a(lp621
a(lp622
a(lp623
a(lp624
a(lp625
a(lp626
a(lp627
a(lp628
a(lp629
a(lp630
a(lp631
a(lp632
a(lp633
a(lp634
a(lp635
a(lp636
a(lp637
a(lp638
a(lp639
a(lp640
asg360
(lp641
I1
aI1
aI1
aI1
aI1
aI1
aI1
aI1
aI1
aI1
aI1
aI1
aI1
aI1
aI1
aI1
aI1
aI1
aI1
aI1
aI1
aI1
aI1
aI1
aI1
aI1
aI1
aI1
aI1
aI1
aI1
aI1
aI1
aI1
aI1
aI1
aI1
aI1
asaa(lp642
g60
ag61
aa(lp643
S'DV_VALUE_OLD'
p644
ag61
aa(lp645
S'OPT_COMBINE_OBJECTIVE'
p646
aS'NO'
p647
aa(lp648
S'VALUE_OBJFUNC_FILENAME'
p649
aS'of_eval.dat'
p650
aa(lp651
S'NUMBER_PART'
p652
aI8
aa(lp653
S'CONSOLE'
p654
aS'CONCISE'
p655
aa(lp656
S'GRADIENT_METHOD'
p657
aS'CONTINUOUS_ADJOINT'
p658
aatRp659
(dp660
g20
I01
sS'_filename'
p661
S'inv_NACA0012_basic.cfg'
p662
sbsS'grads'
p663
g54
sb.