(lp1
S'python_data'
p2
a.ccopy_reg
_reconstructor
p1
(cSU2.eval.design
Design
p2
c__builtin__
object
p3
NtRp4
(dp5
S'files'
p6
cSU2.util.ordered_bunch
OrderedBunch
p7
((lp8
(lp9
S'MESH'
p10
aS'mesh.su2'
p11
aa(lp12
S'DIRECT'
p13
aS'DESIGNS/DSN_003/solution_flow.dat'
p14
aa(lp15
S'ADJOINT_DRAG'
p16
aS'DESIGNS/DSN_003/solution_adj_cd.dat'
p17
aatRp18
(dp19
S'_initialized'
p20
I01
sbsS'funcs'
p21
g7
((ltRp22
(dp23
g20
I01
sbsS'filename'
p24
S'design.pkl'
p25
sS'state'
p26
cSU2.io.state
State
p27
((lp28
(lp29
S'FUNCTIONS'
p30
ag22
aa(lp31
S'GRADIENTS'
p32
ag7
((ltRp33
(dp34
g20
I01
sbaa(lp35
S'VARIABLES'
p36
ag7
((ltRp37
(dp38
g20
I01
sbaa(lp39
S'FILES'
p40
ag18
aa(lp41
S'HISTORY'
p42
ag7
((ltRp43
(dp44
g20
I01
sbaatRp45
(dp46
g20
I01
sS'_timestamp'
p47
F1512853295.5329499
sbsS'folder'
p48
S'DESIGNS/DSN_016'
p49
sS'config'
p50
cSU2.io.config
Config
p51
((lp52
(lp53
S'PHYSICAL_PROBLEM'
p54
aS'EULER'
p55
aa(lp56
S'MATH_PROBLEM'
p57
aS'DIRECT'
p58
aa(lp59
S'RESTART_SOL'
p60
aS'YES'
p61
aa(lp62
S'MACH_NUMBER'
p63
aF0.80000000000000004
aa(lp64
S'AOA'
p65
aS'1.25'
p66
aa(lp67
S'FREESTREAM_PRESSURE'
p68
aS'101325.0'
p69
aa(lp70
S'FREESTREAM_TEMPERATURE'
p71
aS'288.15'
p72
aa(lp73
S'REF_ORIGIN_MOMENT_X'
p74
aS'0.25'
p75
aa(lp76
S'REF_ORIGIN_MOMENT_Y'
p77
aS'0.00'
p78
aa(lp79
S'REF_ORIGIN_MOMENT_Z'
p80
aS'0.00'
p81
aa(lp82
S'REF_LENGTH_MOMENT'
p83
aS'1.0'
p84
aa(lp85
S'REF_AREA'
p86
aS'1.0'
p87
aa(lp88
S'REF_DIMENSIONALIZATION'
p89
aS'FREESTREAM_PRESS_EQ_ONE'
p90
aa(lp91
S'MARKER_EULER'
p92
a(lp93
S'airfoil'
p94
aaa(lp95
S'MARKER_FAR'
p96
a(lp97
S'farfield'
p98
aaa(lp99
S'MARKER_PLOTTING'
p100
a(lp101
S'airfoil'
p102
aaa(lp103
S'MARKER_MONITORING'
p104
a(lp105
S'airfoil'
p106
aaa(lp107
S'NUM_METHOD_GRAD'
p108
aS'GREEN_GAUSS'
p109
aa(lp110
S'CFL_NUMBER'
p111
aF10
aa(lp112
S'CFL_ADAPT'
p113
aS'NO'
p114
aa(lp115
S'CFL_ADAPT_PARAM'
p116
aS'( 1.5, 0.5, 1.0, 100.0 )'
p117
aa(lp118
S'RK_ALPHA_COEFF'
p119
aS'( 0.66667, 0.66667, 1.000000 )'
p120
aa(lp121
S'EXT_ITER'
p122
aI1000
aa(lp123
S'LINEAR_SOLVER'
p124
aS'FGMRES'
p125
aa(lp126
S'LINEAR_SOLVER_PREC'
p127
aS'LU_SGS'
p128
aa(lp129
S'LINEAR_SOLVER_ERROR'
p130
aS'1E-4'
p131
aa(lp132
S'LINEAR_SOLVER_ITER'
p133
aS'2'
aa(lp134
S'MGLEVEL'
p135
aS'2'
aa(lp136
S'MGCYCLE'
p137
aS'V_CYCLE'
p138
aa(lp139
S'MG_PRE_SMOOTH'
p140
aS'( 1, 2, 3, 3 )'
p141
aa(lp142
S'MG_POST_SMOOTH'
p143
aS'( 0, 0, 0, 0 )'
p144
aa(lp145
S'MG_CORRECTION_SMOOTH'
p146
aS'( 0, 0, 0, 0 )'
p147
aa(lp148
S'MG_DAMP_RESTRICTION'
p149
aS'1.0'
p150
aa(lp151
S'MG_DAMP_PROLONGATION'
p152
aS'1.0'
p153
aa(lp154
S'CONV_NUM_METHOD_FLOW'
p155
aS'JST'
p156
aa(lp157
S'SLOPE_LIMITER_FLOW'
p158
aS'VENKATAKRISHNAN'
p159
aa(lp160
S'AD_COEFF_FLOW'
p161
aS'( 0.15, 0.5, 0.02 )'
p162
aa(lp163
S'TIME_DISCRE_FLOW'
p164
aS'EULER_IMPLICIT'
p165
aa(lp166
S'OBJECTIVE_FUNCTION'
p167
aS'DRAG'
p168
aa(lp169
S'CONV_NUM_METHOD_ADJFLOW'
p170
aS'JST'
p171
aa(lp172
S'SLOPE_LIMITER_ADJFLOW'
p173
aS'VENKATAKRISHNAN'
p174
aa(lp175
S'AD_COEFF_ADJFLOW'
p176
aS'( 0.15, 0.0, 0.02 )'
p177
aa(lp178
S'TIME_DISCRE_ADJFLOW'
p179
aS'EULER_IMPLICIT'
p180
aa(lp181
S'CFL_REDUCTION_ADJFLOW'
p182
aS'0.8'
p183
aa(lp184
S'LIMIT_ADJFLOW'
p185
aS'1E6'
p186
aa(lp187
S'GEO_MODE'
p188
aS'FUNCTION'
p189
aa(lp190
S'GEO_MARKER'
p191
aS'( airfoil )'
p192
aa(lp193
S'DV_KIND'
p194
a(lp195
S'HICKS_HENNE'
p196
ag196
ag196
ag196
ag196
ag196
ag196
ag196
ag196
ag196
ag196
ag196
ag196
ag196
ag196
ag196
ag196
ag196
ag196
ag196
ag196
ag196
ag196
ag196
ag196
ag196
ag196
ag196
ag196
ag196
ag196
ag196
ag196
ag196
ag196
ag196
ag196
ag196
aaa(lp197
S'DV_MARKER'
p198
a(lp199
S'airfoil'
p200
aaa(lp201
S'DV_PARAM'
p202
a(dp203
S'PARAM'
p204
(lp205
(lp206
F0
aF0.050000000000000003
aa(lp207
F0
aF0.10000000000000001
aa(lp208
F0
aF0.14999999999999999
aa(lp209
F0
aF0.20000000000000001
aa(lp210
F0
aF0.25
aa(lp211
F0
aF0.29999999999999999
aa(lp212
F0
aF0.34999999999999998
aa(lp213
F0
aF0.40000000000000002
aa(lp214
F0
aF0.45000000000000001
aa(lp215
F0
aF0.5
aa(lp216
F0
aF0.55000000000000004
aa(lp217
F0
aF0.59999999999999998
aa(lp218
F0
aF0.65000000000000002
aa(lp219
F0
aF0.69999999999999996
aa(lp220
F0
aF0.75
aa(lp221
F0
aF0.80000000000000004
aa(lp222
F0
aF0.84999999999999998
aa(lp223
F0
aF0.90000000000000002
aa(lp224
F0
aF0.94999999999999996
aa(lp225
F1
aF0.050000000000000003
aa(lp226
F1
aF0.10000000000000001
aa(lp227
F1
aF0.14999999999999999
aa(lp228
F1
aF0.20000000000000001
aa(lp229
F1
aF0.25
aa(lp230
F1
aF0.29999999999999999
aa(lp231
F1
aF0.34999999999999998
aa(lp232
F1
aF0.40000000000000002
aa(lp233
F1
aF0.45000000000000001
aa(lp234
F1
aF0.5
aa(lp235
F1
aF0.55000000000000004
aa(lp236
F1
aF0.59999999999999998
aa(lp237
F1
aF0.65000000000000002
aa(lp238
F1
aF0.69999999999999996
aa(lp239
F1
aF0.75
aa(lp240
F1
aF0.80000000000000004
aa(lp241
F1
aF0.84999999999999998
aa(lp242
F1
aF0.90000000000000002
aa(lp243
F1
aF0.94999999999999996
aasS'FFDTAG'
p244
(lp245
(lp246
a(lp247
a(lp248
a(lp249
a(lp250
a(lp251
a(lp252
a(lp253
a(lp254
a(lp255
a(lp256
a(lp257
a(lp258
a(lp259
a(lp260
a(lp261
a(lp262
a(lp263
a(lp264
a(lp265
a(lp266
a(lp267
a(lp268
a(lp269
a(lp270
a(lp271
a(lp272
a(lp273
a(lp274
a(lp275
a(lp276
a(lp277
a(lp278
a(lp279
a(lp280
a(lp281
a(lp282
a(lp283
asS'SIZE'
p284
(lp285
I1
aI1
aI1
aI1
aI1
aI1
aI1
aI1
aI1
aI1
aI1
aI1
aI1
aI1
aI1
aI1
aI1
aI1
aI1
aI1
aI1
aI1
aI1
aI1
aI1
aI1
aI1
aI1
aI1
aI1
aI1
aI1
aI1
aI1
aI1
aI1
aI1
aI1
asaa(lp286
S'DV_VALUE'
p287
a(lp288
F1
aaa(lp289
S'DEFORM_LINEAR_ITER'
p290
aS'500'
p291
aa(lp292
S'DEFORM_NONLINEAR_ITER'
p293
aS'1'
aa(lp294
S'DEFORM_CONSOLE_OUTPUT'
p295
aS'YES'
p296
aa(lp297
S'DEFORM_TOL_FACTOR'
p298
aS'0.001'
p299
aa(lp300
S'DEFORM_STIFFNESS_TYPE'
p301
aS'INVERSE_VOLUME'
p302
aa(lp303
S'CONV_CRITERIA'
p304
aS'RESIDUAL'
p305
aa(lp306
S'RESIDUAL_REDUCTION'
p307
aS'6'
aa(lp308
S'RESIDUAL_MINVAL'
p309
aS'-10'
p310
aa(lp311
S'STARTCONV_ITER'
p312
aS'10'
p313
aa(lp314
S'CAUCHY_ELEMS'
p315
aS'100'
p316
aa(lp317
S'CAUCHY_EPS'
p318
aS'1E-6'
p319
aa(lp320
S'CAUCHY_FUNC_FLOW'
p321
aS'DRAG'
p322
aa(lp323
S'CAUCHY_FUNC_ADJFLOW'
p324
aS'SENS_GEOMETRY'
p325
aa(lp326
S'MESH_FILENAME'
p327
ag11
aa(lp328
S'MESH_FORMAT'
p329
aS'SU2'
p330
aa(lp331
S'MESH_OUT_FILENAME'
p332
aS'mesh_out.su2'
p333
aa(lp334
S'SOLUTION_FLOW_FILENAME'
p335
aS'solution_flow.dat'
p336
aa(lp337
S'SOLUTION_ADJ_FILENAME'
p338
aS'solution_adj.dat'
p339
aa(lp340
S'OUTPUT_FORMAT'
p341
aS'PARAVIEW'
p342
aa(lp343
S'CONV_FILENAME'
p344
aS'history'
p345
aa(lp346
S'RESTART_FLOW_FILENAME'
p347
aS'restart_flow.dat'
p348
aa(lp349
S'RESTART_ADJ_FILENAME'
p350
aS'restart_adj.dat'
p351
aa(lp352
S'VOLUME_FLOW_FILENAME'
p353
aS'flow'
p354
aa(lp355
S'VOLUME_ADJ_FILENAME'
p356
aS'adjoint'
p357
aa(lp358
S'GRAD_OBJFUNC_FILENAME'
p359
aS'of_grad.dat'
p360
aa(lp361
S'SURFACE_FLOW_FILENAME'
p362
aS'surface_flow'
p363
aa(lp364
S'SURFACE_ADJ_FILENAME'
p365
aS'surface_adjoint'
p366
aa(lp367
S'WRT_SOL_FREQ'
p368
aF250
aa(lp369
S'WRT_SOL_FREQ_DUALTIME'
p370
aS'1'
aa(lp371
S'WRT_CON_FREQ'
p372
aS'1'
aa(lp373
S'WRT_CON_FREQ_DUALTIME'
p374
aS'10'
p375
aa(lp376
S'WRT_HALO'
p377
aS'NO'
p378
aa(lp379
S'OPT_OBJECTIVE'
p380
a(dp381
S'DRAG'
p382
(dp383
S'SCALE'
p384
F0.001
ssaa(lp385
S'OPT_CONSTRAINT'
p386
a(dp387
S'INEQUALITY'
p388
ccollections
OrderedDict
p389
((ltRp390
sS'EQUALITY'
p391
g389
((ltRp392
saa(lp393
S'OPT_ITERATIONS'
p394
aS'100'
p395
aa(lp396
S'OPT_ACCURACY'
p397
aS'1E-10'
p398
aa(lp399
S'OPT_BOUND_UPPER'
p400
aS'0.005'
p401
aa(lp402
S'OPT_BOUND_LOWER'
p403
aS'-0.005'
p404
aa(lp405
S'DEFINITION_DV'
p406
a(dp407
S'KIND'
p408
g195
sg384
(lp409
F1
aF1
aF1
aF1
aF1
aF1
aF1
aF1
aF1
aF1
aF1
aF1
aF1
aF1
aF1
aF1
aF1
aF1
aF1
aF1
aF1
aF1
aF1
aF1
aF1
aF1
aF1
aF1
aF1
aF1
aF1
aF1
aF1
aF1
aF1
aF1
aF1
aF1
asg204
g205
sS'MARKER'
p410
(lp411
g199
a(lp412
S'airfoil'
p413
aa(lp414
S'airfoil'
p415
aa(lp416
S'airfoil'
p417
aa(lp418
S'airfoil'
p419
aa(lp420
S'airfoil'
p421
aa(lp422
S'airfoil'
p423
aa(lp424
S'airfoil'
p425
aa(lp426
S'airfoil'
p427
aa(lp428
S'airfoil'
p429
aa(lp430
S'airfoil'
p431
aa(lp432
S'airfoil'
p433
aa(lp434
S'airfoil'
p435
aa(lp436
S'airfoil'
p437
aa(lp438
S'airfoil'
p439
aa(lp440
S'airfoil'
p441
aa(lp442
S'airfoil'
p443
aa(lp444
S'airfoil'
p445
aa(lp446
S'airfoil'
p447
aa(lp448
S'airfoil'
p449
aa(lp450
S'airfoil'
p451
aa(lp452
S'airfoil'
p453
aa(lp454
S'airfoil'
p455
aa(lp456
S'airfoil'
p457
aa(lp458
S'airfoil'
p459
aa(lp460
S'airfoil'
p461
aa(lp462
S'airfoil'
p463
aa(lp464
S'airfoil'
p465
aa(lp466
S'airfoil'
p467
aa(lp468
S'airfoil'
p469
aa(lp470
S'airfoil'
p471
aa(lp472
S'airfoil'
p473
aa(lp474
S'airfoil'
p475
aa(lp476
S'airfoil'
p477
aa(lp478
S'airfoil'
p479
aa(lp480
S'airfoil'
p481
aa(lp482
S'airfoil'
p483
aa(lp484
S'airfoil'
p485
aasg244
g245
sg284
g285
saa(lp486
S'DV_VALUE_NEW'
p487
a(lp488
F2.2682946235060742e-05
aF1.0994310130825609e-05
aF4.1737819259095941e-06
aF3.2297272465083711e-07
aF-1.5960145059294817e-06
aF-2.1283591824705761e-06
aF-1.6345445394734432e-06
aF-4.4530626551560824e-07
aF1.0394333186159608e-06
aF2.3725726580553325e-06
aF3.1852574192966267e-06
aF3.364598564718889e-06
aF3.1247610212853892e-06
aF2.8806568543417983e-06
aF2.9299615486487779e-06
aF3.2534545511109764e-06
aF3.7537538403796815e-06
aF4.2486335869449152e-06
aF2.5902456463022743e-06
aF2.734917229836253e-05
aF8.228646238504019e-06
aF5.0665424598450639e-07
aF-2.0986084533413909e-06
aF-2.420469527793631e-06
aF-1.9039365110883183e-06
aF-1.3740354702544083e-06
aF-1.1194349212060234e-06
aF-1.2875485441490855e-06
aF-1.7907844690822123e-06
aF-2.4126743801058186e-06
aF-2.9377104561689158e-06
aF-3.237139352361514e-06
aF-3.3251880517909813e-06
aF-3.3799694558265755e-06
aF-3.6013176316255337e-06
aF-4.0703604824940985e-06
aF-4.6062383104705644e-06
aF-3.6976741821842592e-06
aaa(lp489
S'DV_VALUE_OLD'
p490
a(lp491
F0
aF0
aF0
aF0
aF0
aF0
aF0
aF0
aF0
aF0
aF0
aF0
aF0
aF0
aF0
aF0
aF0
aF0
aF0
aF0
aF0
aF0
aF0
aF0
aF0
aF0
aF0
aF0
aF0
aF0
aF0
aF0
aF0
aF0
aF0
aF0
aF0
aF0
aaa(lp492
S'OPT_COMBINE_OBJECTIVE'
p493
aS'NO'
p494
aa(lp495
S'VALUE_OBJFUNC_FILENAME'
p496
aS'of_eval.dat'
p497
aa(lp498
S'NUMBER_PART'
p499
aI8
aa(lp500
S'CONSOLE'
p501
aS'CONCISE'
p502
aa(lp503
S'GRADIENT_METHOD'
p504
aS'CONTINUOUS_ADJOINT'
p505
aatRp506
(dp507
g20
I01
sS'_filename'
p508
S'inv_NACA0012_basic.cfg'
p509
sbsS'grads'
p510
g33
sb.