(lp1
S'python_data'
p2
a.ccopy_reg
_reconstructor
p1
(cSU2.eval.design
Design
p2
c__builtin__
object
p3
NtRp4
(dp5
S'files'
p6
cSU2.util.ordered_bunch
OrderedBunch
p7
((lp8
(lp9
S'MESH'
p10
aS'mesh_NACA0012_inv_deform.su2'
p11
aa(lp12
S'DIRECT'
p13
aS'solution_flow.dat'
p14
aa(lp15
S'ADJOINT_DRAG'
p16
aS'solution_adj_cd.dat'
p17
aatRp18
(dp19
S'_initialized'
p20
I01
sbsS'funcs'
p21
g7
((lp22
(lp23
S'LIFT'
p24
aF0.0264029343
aa(lp25
S'DRAG'
p26
aF0.0019042532499999999
aa(lp27
S'SIDEFORCE'
p28
aF0
aa(lp29
S'MOMENT_X'
p30
aF0
aa(lp31
S'MOMENT_Y'
p32
aF0
aa(lp33
S'MOMENT_Z'
p34
aF-0.031390718400000003
aa(lp35
S'FORCE_X'
p36
aF0.0013278231100000001
aa(lp37
S'FORCE_Y'
p38
aF0.026438192199999998
aa(lp39
S'FORCE_Z'
p40
aF0
aa(lp41
S'EFFICIENCY'
p42
aF13.8652432
aatRp43
(dp44
g20
I01
sbsS'filename'
p45
S'design.pkl'
p46
sS'state'
p47
cSU2.io.state
State
p48
((lp49
(lp50
S'FUNCTIONS'
p51
ag43
aa(lp52
S'GRADIENTS'
p53
ag7
((lp54
(lp55
S'DRAG'
p56
a(lp57
F-0.0036494600000000002
aF0.0304864
aF0.056554599999999997
aF0.076210899999999998
aF0.087700600000000004
aF0.088079500000000005
aF0.075014899999999995
aF0.048549099999999998
aF0.0124558
aF-0.025603000000000001
aF-0.0559604
aF-0.070999900000000005
aF-0.069798799999999994
aF-0.059782299999999997
aF-0.0521234
aF-0.053220099999999999
aF-0.062013600000000002
aF-0.077741500000000005
aF-0.10478700000000001
aF0.23064899999999999
aF0.013343799999999999
aF-0.17907100000000001
aF-0.28045700000000001
aF-0.29357299999999997
aF-0.24393100000000001
aF-0.161244
aF-0.070497299999999999
aF0.0113673
aF0.074813599999999994
aF0.11471000000000001
aF0.127419
aF0.11121200000000001
aF0.072189400000000001
aF0.031453599999999998
aF0.017772
aF0.035732
aF0.057360500000000002
aF0.079921699999999998
aaatRp58
(dp59
g20
I01
sbaa(lp60
S'VARIABLES'
p61
ag7
((lp62
(lp63
S'DV_VALUE_NEW'
p64
a(lp65
F4.3812669132190405e-05
aF-9.9849017127350291e-05
aF-0.0001878225649274985
aF-0.00022626096258069697
aF-0.00020660651819518253
aF-0.00011867905017249372
aF3.9741267450456487e-05
aF0.00025579242714274052
aF0.00049920840814441758
aF0.0007277845147281004
aF0.00090165924135142091
aF0.001002270502968271
aF0.0010454868521394289
aF0.0010766643441649489
aF0.0011457607774113833
aF0.0012824725928070172
aF0.0015043895877960773
aF0.0018736166904691324
aF0.002659219042114103
aF-0.0023758859400622619
aF-0.0041989088923660069
aF-0.005148468777880031
aF-0.0053047449458283333
aF-0.0048117493942713991
aF-0.0038640407168893959
aF-0.0026728382133730686
aF-0.001434128180694771
aF-0.00030885727776264915
aF0.00058304698300619016
aF0.0011583164314281167
aF0.0013648779900563258
aF0.0011874983028919448
aF0.00067324887828726929
aF-3.4549871642194705e-05
aF-0.00070856540154615448
aF-0.0011764727268253764
aF-0.0015279924509791637
aF-0.0021585452968139484
aaatRp66
(dp67
g20
I01
sbaa(lp68
S'FILES'
p69
ag18
aa(lp70
S'HISTORY'
p71
ag7
((lp72
(lp73
g13
ag7
((lp74
(lp75
S'ITERATION'
p76
a(lp77
F1151
aF1152
aF1153
aF1154
aF1155
aF1156
aF1157
aF1158
aF1159
aF1160
aF1161
aF1162
aF1163
aF1164
aF1165
aF1166
aF1167
aF1168
aF1169
aF1170
aF1171
aF1172
aF1173
aF1174
aF1175
aF1176
aF1177
aF1178
aF1179
aF1180
aF1181
aF1182
aF1183
aF1184
aF1185
aF1186
aF1187
aF1188
aF1189
aF1190
aF1191
aF1192
aF1193
aF1194
aF1195
aF1196
aF1197
aF1198
aF1199
aF1200
aF1201
aF1202
aF1203
aF1204
aF1205
aF1206
aF1207
aF1208
aF1209
aF1210
aF1211
aF1212
aF1213
aF1214
aF1215
aF1216
aF1217
aF1218
aF1219
aF1220
aF1221
aF1222
aF1223
aF1224
aF1225
aF1226
aF1227
aF1228
aF1229
aF1230
aF1231
aF1232
aF1233
aF1234
aF1235
aF1236
aF1237
aF1238
aF1239
aF1240
aF1241
aF1242
aF1243
aF1244
aF1245
aF1246
aF1247
aF1248
aF1249
aF1250
aF1251
aF1252
aF1253
aF1254
aF1255
aF1256
aF1257
aF1258
aF1259
aF1260
aF1261
aF1262
aF1263
aF1264
aF1265
aF1266
aF1267
aF1268
aF1269
aF1270
aF1271
aF1272
aF1273
aF1274
aF1275
aF1276
aF1277
aF1278
aF1279
aF1280
aF1281
aF1282
aF1283
aF1284
aF1285
aF1286
aF1287
aF1288
aF1289
aF1290
aF1291
aF1292
aF1293
aF1294
aF1295
aF1296
aF1297
aF1298
aF1299
aF1300
aF1301
aF1302
aF1303
aF1304
aF1305
aF1306
aF1307
aF1308
aF1309
aF1310
aF1311
aF1312
aF1313
aF1314
aF1315
aF1316
aF1317
aF1318
aF1319
aF1320
aF1321
aF1322
aF1323
aF1324
aF1325
aF1326
aF1327
aF1328
aF1329
aF1330
aF1331
aF1332
aF1333
aF1334
aF1335
aF1336
aF1337
aF1338
aF1339
aF1340
aF1341
aF1342
aF1343
aF1344
aF1345
aF1346
aF1347
aF1348
aF1349
aF1350
aF1351
aF1352
aF1353
aF1354
aF1355
aF1356
aF1357
aF1358
aF1359
aF1360
aF1361
aF1362
aF1363
aF1364
aF1365
aF1366
aF1367
aF1368
aF1369
aF1370
aF1371
aF1372
aF1373
aF1374
aF1375
aF1376
aF1377
aF1378
aF1379
aF1380
aF1381
aF1382
aF1383
aF1384
aF1385
aF1386
aF1387
aF1388
aF1389
aF1390
aF1391
aF1392
aF1393
aF1394
aF1395
aF1396
aF1397
aF1398
aF1399
aF1400
aF1401
aF1402
aF1403
aF1404
aF1405
aF1406
aF1407
aF1408
aF1409
aF1410
aF1411
aF1412
aF1413
aF1414
aF1415
aF1416
aF1417
aF1418
aF1419
aF1420
aF1421
aF1422
aF1423
aF1424
aF1425
aF1426
aF1427
aF1428
aF1429
aF1430
aF1431
aF1432
aF1433
aF1434
aF1435
aF1436
aF1437
aF1438
aF1439
aF1440
aF1441
aF1442
aF1443
aF1444
aF1445
aF1446
aF1447
aF1448
aF1449
aF1450
aF1451
aF1452
aF1453
aF1454
aF1455
aF1456
aF1457
aF1458
aF1459
aF1460
aF1461
aF1462
aF1463
aF1464
aaa(lp78
g24
a(lp79
F0.0096541070999999999
aF0.011389617899999999
aF0.0126685025
aF0.0136135626
aF0.0147262218
aF0.0157741585
aF0.0166827963
aF0.017540907000000001
aF0.018336302299999999
aF0.019041430599999999
aF0.019663950600000001
aF0.0202239941
aF0.0207180083
aF0.021111806699999999
aF0.021424341999999999
aF0.0216899295
aF0.021926024400000001
aF0.022138392100000001
aF0.022323276
aF0.0224826201
aF0.022623053399999999
aF0.0227486979
aF0.022861876600000001
aF0.0229639736
aF0.023056342800000001
aF0.023140681900000001
aF0.023218360399999999
aF0.023290898899999999
aF0.0233602948
aF0.0234295235
aF0.023498024400000001
aF0.023569282099999998
aF0.023647574800000001
aF0.023735076800000001
aF0.023829501900000001
aF0.023931186300000001
aF0.024045965499999999
aF0.024153500500000001
aF0.024273313500000001
aF0.0244017542
aF0.024534393099999999
aF0.024670228799999999
aF0.024806731799999999
aF0.0249424034
aF0.025075637800000002
aF0.0252042954
aF0.025326620000000001
aF0.0254410287
aF0.0255467664
aF0.0256432534
aF0.025730038399999999
aF0.025806919099999999
aF0.025874007500000001
aF0.025931650099999998
aF0.025980436499999999
aF0.026021061299999999
aF0.026054352499999999
aF0.026081162799999998
aF0.0261022939
aF0.0261185507
aF0.026130795700000001
aF0.0261399693
aF0.026146907899999999
aF0.026152330200000001
aF0.026157137399999999
aF0.0261621847
aF0.026168189000000001
aF0.026176135199999999
aF0.026185156300000002
aF0.026194052200000002
aF0.0262058316
aF0.026220738800000001
aF0.0262374358
aF0.026256266100000002
aF0.026277182199999999
aF0.026299563799999998
aF0.0263229369
aF0.026346826100000002
aF0.026370713800000001
aF0.026394049100000001
aF0.0264163122
aF0.026437082399999999
aF0.026456007
aF0.026472760500000001
aF0.026487101499999999
aF0.026498900799999999
aF0.026508086399999999
aF0.026514656099999999
aF0.026518669599999999
aF0.026520238799999998
aF0.026519518400000001
aF0.026516731700000001
aF0.026512127999999999
aF0.026505983300000001
aF0.026498496999999999
aF0.026489865099999999
aF0.0264804002
aF0.026470435399999999
aF0.026460306900000001
aF0.026450379600000001
aF0.026440847199999999
aF0.026431685600000001
aF0.026423045900000001
aF0.0264155178
aF0.0264091906
aF0.026404159999999999
aF0.0264010049
aF0.026399813000000001
aF0.0263988229
aF0.0263978154
aF0.026396974699999999
aF0.0263983972
aF0.0264014092
aF0.0264048637
aF0.026408427500000001
aF0.0264121181
aF0.026416011600000001
aF0.026420119700000001
aF0.0264243503
aF0.026428497299999999
aF0.026432440000000001
aF0.026436138800000002
aF0.026439450199999999
aF0.026442264300000001
aF0.026444526699999998
aF0.0264462102
aF0.026447286899999999
aF0.026447734800000001
aF0.026447601500000001
aF0.0264470251
aF0.026446034300000001
aF0.026444826599999999
aF0.026442940000000002
aF0.0264406425
aF0.026438191199999999
aF0.0264355826
aF0.026432816599999999
aF0.026429933900000001
aF0.026426999
aF0.026424079100000001
aF0.026421233799999999
aF0.026418508699999999
aF0.026415933499999999
aF0.026413533600000001
aF0.026411332799999999
aF0.026409347499999999
aF0.026407588700000002
aF0.026406065100000001
aF0.026404781299999999
aF0.026403736300000001
aF0.026402922299999999
aF0.026402329200000001
aF0.026401943800000001
aF0.026401748700000002
aF0.026401718899999999
aF0.0264018234
aF0.026402043399999998
aF0.026402367999999999
aF0.026402767300000001
aF0.0264032131
aF0.026403673999999999
aF0.026404120499999999
aF0.0264045319
aF0.026404894599999999
aF0.026405199599999998
aF0.026405440700000001
aF0.026405613500000001
aF0.026405715400000002
aF0.026405745000000001
aF0.026405702
aF0.0264055874
aF0.0264054037
aF0.026405154900000002
aF0.0264048466
aF0.026404487399999999
aF0.0264040891
aF0.026403666999999999
aF0.0264032352
aF0.026402798799999998
aF0.026402369500000002
aF0.026401961799999998
aF0.026401583400000001
aF0.026401244899999999
aF0.026400954599999998
aF0.026400717399999999
aF0.026400535499999999
aF0.026400409100000001
aF0.026400337699999998
aF0.026400333000000002
aF0.0264004002
aF0.026400521100000001
aF0.026400690399999999
aF0.0264009025
aF0.026401149299999999
aF0.026401421000000001
aF0.0264017088
aF0.026402004400000002
aF0.026402299600000002
aF0.0264025861
aF0.026402856700000001
aF0.026403105600000001
aF0.026403329
aF0.026403523200000001
aF0.026403685499999999
aF0.026403813599999999
aF0.026403906299999998
aF0.026403962900000001
aF0.026403983700000001
aF0.026403970400000001
aF0.026403925599999999
aF0.026403853000000001
aF0.026403756600000002
aF0.0264036411
aF0.026403511500000001
aF0.0264033724
aF0.026403229
aF0.0264030866
aF0.026402949500000002
aF0.0264028213
aF0.026402704200000002
aF0.026402600299999999
aF0.026402511100000001
aF0.026402437899999999
aF0.026402381400000001
aF0.0264023421
aF0.0264023203
aF0.026402315799999999
aF0.0264023278
aF0.026402355200000002
aF0.026402396500000001
aF0.026402449500000001
aF0.026402512199999999
aF0.026402582099999999
aF0.026402656600000001
aF0.0264027329
aF0.026402808699999999
aF0.0264028818
aF0.026402950500000001
aF0.0264030133
aF0.0264030692
aF0.026403117199999999
aF0.026403156699999999
aF0.026403187500000001
aF0.026403209099999998
aF0.026403221800000001
aF0.0264032256
aF0.026403221099999999
aF0.026403208800000001
aF0.0264031895
aF0.026403164199999999
aF0.0264031341
aF0.026403100400000001
aF0.0264030645
aF0.026403027700000001
aF0.0264029912
aF0.0264029559
aF0.0264029226
aF0.026402892000000001
aF0.026402864700000001
aF0.026402841199999999
aF0.026402821699999999
aF0.026402806599999998
aF0.0264027958
aF0.0264027896
aF0.026402787699999999
aF0.026402790200000002
aF0.026402796499999999
aF0.026402806399999999
aF0.026402819399999999
aF0.026402834699999999
aF0.026402851799999998
aF0.026402869900000001
aF0.026402888400000001
aF0.026402906800000001
aF0.0264029244
aF0.026402940999999999
aF0.026402956200000001
aF0.026402969599999999
aF0.026402981200000002
aF0.0264029907
aF0.026402998099999998
aF0.0264030034
aF0.026403006400000002
aF0.026403007400000001
aF0.026403006400000002
aF0.026403003500000001
aF0.026402999
aF0.026402993
aF0.026402985699999999
aF0.026402977399999999
aF0.0264029686
aF0.0264029595
aF0.026402950299999998
aF0.026402941499999999
aF0.026402933100000001
aF0.026402925399999999
aF0.026402918500000001
aF0.0264029125
aF0.026402907400000002
aF0.0264029034
aF0.0264029005
aF0.026402898599999999
aF0.026402897799999998
aF0.026402898000000001
aF0.0264028992
aF0.0264029013
aF0.026402904200000001
aF0.0264029078
aF0.026402911800000001
aF0.026402916299999999
aF0.026402920900000001
aF0.0264029255
aF0.026402930000000002
aF0.0264029343
aaa(lp80
g26
a(lp81
F0.00219114528
aF0.0019560219099999999
aF0.0021150768899999999
aF0.0020386989900000002
aF0.0019557763400000002
aF0.0018912813099999999
aF0.0018709186299999999
aF0.00179373974
aF0.0017540023400000001
aF0.00173190287
aF0.0017144131599999999
aF0.0016966273599999999
aF0.0016676790799999999
aF0.0016544847200000001
aF0.0016505836800000001
aF0.0016467284
aF0.00164130517
aF0.00163627277
aF0.00163750506
aF0.00164250035
aF0.0016497461599999999
aF0.0016607052299999999
aF0.00167619784
aF0.001695984
aF0.0017196676199999999
aF0.00174662953
aF0.0017756192400000001
aF0.0018050733400000001
aF0.0018334088300000001
aF0.0018602774099999999
aF0.0018885555299999999
aF0.00191046877
aF0.0019319639300000001
aF0.00194765142
aF0.0019616832599999999
aF0.0019753730300000002
aF0.00197193689
aF0.00197712134
aF0.0019759723600000002
aF0.00197237851
aF0.0019674504399999999
aF0.0019613355
aF0.0019542000799999998
aF0.00194673798
aF0.00193861416
aF0.00192996823
aF0.0019208569
aF0.0019119310300000001
aF0.0019032929600000001
aF0.0018952463299999999
aF0.00188810575
aF0.0018821164300000001
aF0.0018773725099999999
aF0.0018738801600000001
aF0.00187158837
aF0.00187040236
aF0.00187022753
aF0.00187098497
aF0.00187256769
aF0.0018749458100000001
aF0.0018781363099999999
aF0.0018821275499999999
aF0.0018868386500000001
aF0.0018920244000000001
aF0.00189746393
aF0.0019029117
aF0.00190827367
aF0.0019136133999999999
aF0.0019157437599999999
aF0.00191883142
aF0.00192151499
aF0.0019232712700000001
aF0.0019245145800000001
aF0.0019250446999999999
aF0.0019249102199999999
aF0.00192414558
aF0.0019227652200000001
aF0.00192090313
aF0.0019185921
aF0.00191591946
aF0.00191303843
aF0.0019100635300000001
aF0.0019070838400000001
aF0.00190420309
aF0.00190151736
aF0.0018990505200000001
aF0.0018968576
aF0.0018949836299999999
aF0.00189344563
aF0.0018922579700000001
aF0.0018914417199999999
aF0.0018910215000000001
aF0.00189101673
aF0.0018913460499999999
aF0.00189191029
aF0.0018927126099999999
aF0.00189372265
aF0.0018949156500000001
aF0.00189638754
aF0.0018980626400000001
aF0.0018996394800000001
aF0.0019011795199999999
aF0.00190309524
aF0.0019047967399999999
aF0.0019063710299999999
aF0.0019082278799999999
aF0.0019099860900000001
aF0.0019112129700000001
aF0.0019119161899999999
aF0.0019108864799999999
aF0.0019108398700000001
aF0.0019110986099999999
aF0.0019108255899999999
aF0.0019104838
aF0.00191015797
aF0.0019098629999999999
aF0.0019094590399999999
aF0.0019089087099999999
aF0.0019082307700000001
aF0.0019074205499999999
aF0.00190660251
aF0.00190574405
aF0.00190490677
aF0.0019040919800000001
aF0.00190334117
aF0.0019026927100000001
aF0.00190215077
aF0.0019017160100000001
aF0.0019014343499999999
aF0.00190154096
aF0.0019014917200000001
aF0.00190125639
aF0.0019013213199999999
aF0.0019015118399999999
aF0.0019017012399999999
aF0.00190190623
aF0.00190214307
aF0.00190241308
aF0.0019027121799999999
aF0.0019030367700000001
aF0.0019033706700000001
aF0.00190369743
aF0.0019040118400000001
aF0.00190430843
aF0.0019045807200000001
aF0.0019048255599999999
aF0.00190504287
aF0.0019052317600000001
aF0.0019053903200000001
aF0.0019055176199999999
aF0.00190561295
aF0.00190567401
aF0.0019056981699999999
aF0.0019056826999999999
aF0.0019056248200000001
aF0.0019055242500000001
aF0.0019053897300000001
aF0.0019052377300000001
aF0.0019050751900000001
aF0.00190490504
aF0.00190473354
aF0.0019045658400000001
aF0.0019044049500000001
aF0.0019042532700000001
aF0.0019041130900000001
aF0.0019039862200000001
aF0.0019038737300000001
aF0.00190377618
aF0.00190369384
aF0.001903627
aF0.00190357636
aF0.0019035432
aF0.00190352943
aF0.0019035369
aF0.0019035659099999999
aF0.0019036153100000001
aF0.0019036823099999999
aF0.00190376093
aF0.00190384537
aF0.00190393414
aF0.0019040237200000001
aF0.0019041127200000001
aF0.00190419941
aF0.0019042809500000001
aF0.0019043549700000001
aF0.00190441951
aF0.0019044736
aF0.00190453082
aF0.00190458866
aF0.0019046235199999999
aF0.0019046373499999999
aF0.0019046390399999999
aF0.0019046304699999999
aF0.0019046084299999999
aF0.00190457807
aF0.00190454243
aF0.0019045021799999999
aF0.00190445848
aF0.0019044122100000001
aF0.0019043654199999999
aF0.0019043190199999999
aF0.0019042735499999999
aF0.0019042297100000001
aF0.0019041881799999999
aF0.0019041495499999999
aF0.0019041143
aF0.0019040833999999999
aF0.0019040583900000001
aF0.0019040408999999999
aF0.00190403189
aF0.0019040314
aF0.00190403838
aF0.00190405109
aF0.0019040678299999999
aF0.0019040876299999999
aF0.00190411023
aF0.0019041348899999999
aF0.0019041604599999999
aF0.00190418627
aF0.00190421177
aF0.0019042363900000001
aF0.0019042595499999999
aF0.0019042808300000001
aF0.00190429995
aF0.0019043166500000001
aF0.00190433068
aF0.0019043417699999999
aF0.0019043496500000001
aF0.0019043540299999999
aF0.0019043545699999999
aF0.00190435129
aF0.0019043449599999999
aF0.00190433638
aF0.001904326
aF0.00190431428
aF0.0019043017300000001
aF0.0019042888100000001
aF0.0019042759000000001
aF0.00190426333
aF0.0019042514
aF0.0019042403399999999
aF0.0019042303600000001
aF0.0019042215599999999
aF0.00190421405
aF0.0019042079000000001
aF0.0019042032199999999
aF0.00190420016
aF0.0019041988799999999
aF0.0019041994199999999
aF0.0019042015399999999
aF0.0019042049100000001
aF0.00190420932
aF0.0019042145700000001
aF0.00190422045
aF0.0019042267300000001
aF0.0019042332
aF0.00190423967
aF0.0019042459900000001
aF0.0019042519999999999
aF0.00190425757
aF0.00190426261
aF0.00190426706
aF0.00190427086
aF0.0019042739799999999
aF0.0019042764199999999
aF0.00190427808
aF0.0019042787700000001
aF0.0019042783299999999
aF0.0019042770300000001
aF0.00190427511
aF0.00190427267
aF0.00190426983
aF0.0019042667300000001
aF0.00190426348
aF0.00190426017
aF0.0019042569000000001
aF0.0019042537500000001
aF0.0019042507599999999
aF0.0019042480000000001
aF0.0019042454899999999
aF0.0019042432800000001
aF0.0019042413699999999
aF0.0019042397999999999
aF0.00190423859
aF0.0019042377500000001
aF0.0019042373499999999
aF0.0019042374099999999
aF0.00190423793
aF0.0019042388199999999
aF0.00190423999
aF0.0019042413800000001
aF0.0019042429399999999
aF0.0019042445900000001
aF0.00190424629
aF0.00190424797
aF0.0019042496199999999
aF0.00190425118
aF0.00190425263
aF0.00190425395
aF0.0019042551200000001
aF0.0019042561400000001
aF0.00190425699
aF0.0019042576700000001
aF0.00190425817
aF0.0019042584599999999
aF0.0019042585199999999
aF0.0019042583100000001
aF0.0019042578800000001
aF0.0019042573
aF0.0019042566
aF0.0019042558200000001
aF0.00190425498
aF0.00190425411
aF0.0019042532499999999
aaa(lp82
g28
a(lp83
F0
aF0
aF0
aF0
aF0
aF0
aF0
aF0
aF0
aF0
aF0
aF0
aF0
aF0
aF0
aF0
aF0
aF0
aF0
aF0
aF0
aF0
aF0
aF0
aF0
aF0
aF0
aF0
aF0
aF0
aF0
aF0
aF0
aF0
aF0
aF0
aF0
aF0
aF0
aF0
aF0
aF0
aF0
aF0
aF0
aF0
aF0
aF0
aF0
aF0
aF0
aF0
aF0
aF0
aF0
aF0
aF0
aF0
aF0
aF0
aF0
aF0
aF0
aF0
aF0
aF0
aF0
aF0
aF0
aF0
aF0
aF0
aF0
aF0
aF0
aF0
aF0
aF0
aF0
aF0
aF0
aF0
aF0
aF0
aF0
aF0
aF0
aF0
aF0
aF0
aF0
aF0
aF0
aF0
aF0
aF0
aF0
aF0
aF0
aF0
aF0
aF0
aF0
aF0
aF0
aF0
aF0
aF0
aF0
aF0
aF0
aF0
aF0
aF0
aF0
aF0
aF0
aF0
aF0
aF0
aF0
aF0
aF0
aF0
aF0
aF0
aF0
aF0
aF0
aF0
aF0
aF0
aF0
aF0
aF0
aF0
aF0
aF0
aF0
aF0
aF0
aF0
aF0
aF0
aF0
aF0
aF0
aF0
aF0
aF0
aF0
aF0
aF0
aF0
aF0
aF0
aF0
aF0
aF0
aF0
aF0
aF0
aF0
aF0
aF0
aF0
aF0
aF0
aF0
aF0
aF0
aF0
aF0
aF0
aF0
aF0
aF0
aF0
aF0
aF0
aF0
aF0
aF0
aF0
aF0
aF0
aF0
aF0
aF0
aF0
aF0
aF0
aF0
aF0
aF0
aF0
aF0
aF0
aF0
aF0
aF0
aF0
aF0
aF0
aF0
aF0
aF0
aF0
aF0
aF0
aF0
aF0
aF0
aF0
aF0
aF0
aF0
aF0
aF0
aF0
aF0
aF0
aF0
aF0
aF0
aF0
aF0
aF0
aF0
aF0
aF0
aF0
aF0
aF0
aF0
aF0
aF0
aF0
aF0
aF0
aF0
aF0
aF0
aF0
aF0
aF0
aF0
aF0
aF0
aF0
aF0
aF0
aF0
aF0
aF0
aF0
aF0
aF0
aF0
aF0
aF0
aF0
aF0
aF0
aF0
aF0
aF0
aF0
aF0
aF0
aF0
aF0
aF0
aF0
aF0
aF0
aF0
aF0
aF0
aF0
aF0
aF0
aF0
aF0
aF0
aF0
aF0
aF0
aF0
aF0
aF0
aF0
aF0
aF0
aF0
aF0
aF0
aF0
aF0
aF0
aF0
aF0
aF0
aF0
aF0
aF0
aF0
aF0
aF0
aF0
aF0
aF0
aF0
aF0
aaa(lp84
g30
a(lp85
F0
aF0
aF0
aF0
aF0
aF0
aF0
aF0
aF0
aF0
aF0
aF0
aF0
aF0
aF0
aF0
aF0
aF0
aF0
aF0
aF0
aF0
aF0
aF0
aF0
aF0
aF0
aF0
aF0
aF0
aF0
aF0
aF0
aF0
aF0
aF0
aF0
aF0
aF0
aF0
aF0
aF0
aF0
aF0
aF0
aF0
aF0
aF0
aF0
aF0
aF0
aF0
aF0
aF0
aF0
aF0
aF0
aF0
aF0
aF0
aF0
aF0
aF0
aF0
aF0
aF0
aF0
aF0
aF0
aF0
aF0
aF0
aF0
aF0
aF0
aF0
aF0
aF0
aF0
aF0
aF0
aF0
aF0
aF0
aF0
aF0
aF0
aF0
aF0
aF0
aF0
aF0
aF0
aF0
aF0
aF0
aF0
aF0
aF0
aF0
aF0
aF0
aF0
aF0
aF0
aF0
aF0
aF0
aF0
aF0
aF0
aF0
aF0
aF0
aF0
aF0
aF0
aF0
aF0
aF0
aF0
aF0
aF0
aF0
aF0
aF0
aF0
aF0
aF0
aF0
aF0
aF0
aF0
aF0
aF0
aF0
aF0
aF0
aF0
aF0
aF0
aF0
aF0
aF0
aF0
aF0
aF0
aF0
aF0
aF0
aF0
aF0
aF0
aF0
aF0
aF0
aF0
aF0
aF0
aF0
aF0
aF0
aF0
aF0
aF0
aF0
aF0
aF0
aF0
aF0
aF0
aF0
aF0
aF0
aF0
aF0
aF0
aF0
aF0
aF0
aF0
aF0
aF0
aF0
aF0
aF0
aF0
aF0
aF0
aF0
aF0
aF0
aF0
aF0
aF0
aF0
aF0
aF0
aF0
aF0
aF0
aF0
aF0
aF0
aF0
aF0
aF0
aF0
aF0
aF0
aF0
aF0
aF0
aF0
aF0
aF0
aF0
aF0
aF0
aF0
aF0
aF0
aF0
aF0
aF0
aF0
aF0
aF0
aF0
aF0
aF0
aF0
aF0
aF0
aF0
aF0
aF0
aF0
aF0
aF0
aF0
aF0
aF0
aF0
aF0
aF0
aF0
aF0
aF0
aF0
aF0
aF0
aF0
aF0
aF0
aF0
aF0
aF0
aF0
aF0
aF0
aF0
aF0
aF0
aF0
aF0
aF0
aF0
aF0
aF0
aF0
aF0
aF0
aF0
aF0
aF0
aF0
aF0
aF0
aF0
aF0
aF0
aF0
aF0
aF0
aF0
aF0
aF0
aF0
aF0
aF0
aF0
aF0
aF0
aF0
aF0
aF0
aF0
aF0
aF0
aF0
aF0
aF0
aF0
aF0
aF0
aF0
aF0
aF0
aF0
aF0
aF0
aF0
aF0
aaa(lp86
g32
a(lp87
F0
aF0
aF0
aF0
aF0
aF0
aF0
aF0
aF0
aF0
aF0
aF0
aF0
aF0
aF0
aF0
aF0
aF0
aF0
aF0
aF0
aF0
aF0
aF0
aF0
aF0
aF0
aF0
aF0
aF0
aF0
aF0
aF0
aF0
aF0
aF0
aF0
aF0
aF0
aF0
aF0
aF0
aF0
aF0
aF0
aF0
aF0
aF0
aF0
aF0
aF0
aF0
aF0
aF0
aF0
aF0
aF0
aF0
aF0
aF0
aF0
aF0
aF0
aF0
aF0
aF0
aF0
aF0
aF0
aF0
aF0
aF0
aF0
aF0
aF0
aF0
aF0
aF0
aF0
aF0
aF0
aF0
aF0
aF0
aF0
aF0
aF0
aF0
aF0
aF0
aF0
aF0
aF0
aF0
aF0
aF0
aF0
aF0
aF0
aF0
aF0
aF0
aF0
aF0
aF0
aF0
aF0
aF0
aF0
aF0
aF0
aF0
aF0
aF0
aF0
aF0
aF0
aF0
aF0
aF0
aF0
aF0
aF0
aF0
aF0
aF0
aF0
aF0
aF0
aF0
aF0
aF0
aF0
aF0
aF0
aF0
aF0
aF0
aF0
aF0
aF0
aF0
aF0
aF0
aF0
aF0
aF0
aF0
aF0
aF0
aF0
aF0
aF0
aF0
aF0
aF0
aF0
aF0
aF0
aF0
aF0
aF0
aF0
aF0
aF0
aF0
aF0
aF0
aF0
aF0
aF0
aF0
aF0
aF0
aF0
aF0
aF0
aF0
aF0
aF0
aF0
aF0
aF0
aF0
aF0
aF0
aF0
aF0
aF0
aF0
aF0
aF0
aF0
aF0
aF0
aF0
aF0
aF0
aF0
aF0
aF0
aF0
aF0
aF0
aF0
aF0
aF0
aF0
aF0
aF0
aF0
aF0
aF0
aF0
aF0
aF0
aF0
aF0
aF0
aF0
aF0
aF0
aF0
aF0
aF0
aF0
aF0
aF0
aF0
aF0
aF0
aF0
aF0
aF0
aF0
aF0
aF0
aF0
aF0
aF0
aF0
aF0
aF0
aF0
aF0
aF0
aF0
aF0
aF0
aF0
aF0
aF0
aF0
aF0
aF0
aF0
aF0
aF0
aF0
aF0
aF0
aF0
aF0
aF0
aF0
aF0
aF0
aF0
aF0
aF0
aF0
aF0
aF0
aF0
aF0
aF0
aF0
aF0
aF0
aF0
aF0
aF0
aF0
aF0
aF0
aF0
aF0
aF0
aF0
aF0
aF0
aF0
aF0
aF0
aF0
aF0
aF0
aF0
aF0
aF0
aF0
aF0
aF0
aF0
aF0
aF0
aF0
aF0
aF0
aF0
aF0
aF0
aF0
aF0
aaa(lp88
g34
a(lp89
F-0.028262526600000001
aF-0.0296017864
aF-0.029100472200000001
aF-0.0291277263
aF-0.029239707
aF-0.029321645399999999
aF-0.029460531500000001
aF-0.029617786600000001
aF-0.029761428499999999
aF-0.0299061282
aF-0.030065967999999998
aF-0.030232969200000001
aF-0.030397177399999999
aF-0.0305625429
aF-0.0307255086
aF-0.030880783500000002
aF-0.0310244374
aF-0.0311538331
aF-0.031271524199999998
aF-0.031380666799999998
aF-0.0314810123
aF-0.031571746499999997
aF-0.0316526694
aF-0.031723902399999997
aF-0.0317852894
aF-0.031836375299999997
aF-0.031876571899999998
aF-0.031904996200000001
aF-0.031921209999999998
aF-0.031923046400000002
aF-0.031911326699999999
aF-0.031887657999999999
aF-0.031851932999999999
aF-0.031805549500000002
aF-0.0317522602
aF-0.031696346899999998
aF-0.031637592899999997
aF-0.031580535399999998
aF-0.031525352800000003
aF-0.031472760699999998
aF-0.031424898800000003
aF-0.031382765799999997
aF-0.031347405100000003
aF-0.031318892700000003
aF-0.031297412300000001
aF-0.031282770299999998
aF-0.031274595400000001
aF-0.031272377300000001
aF-0.031275527499999997
aF-0.0312833239
aF-0.031294985099999999
aF-0.031309708800000002
aF-0.031326676800000001
aF-0.031345082699999999
aF-0.031364157699999999
aF-0.031383176999999998
aF-0.031401498999999999
aF-0.031418557299999997
aF-0.031433886500000001
aF-0.031447047499999999
aF-0.031457671899999998
aF-0.031465420199999997
aF-0.031470084699999998
aF-0.031471652199999998
aF-0.031470202099999997
aF-0.031465874400000003
aF-0.0314587936
aF-0.031449009299999997
aF-0.031437404199999998
aF-0.031424357
aF-0.031410447500000001
aF-0.031396011000000001
aF-0.031381926300000001
aF-0.031368576299999999
aF-0.031356142099999998
aF-0.0313450521
aF-0.0313355804
aF-0.031327835200000001
aF-0.031321907099999997
aF-0.031317860599999997
aF-0.031315717299999997
aF-0.031315433199999999
aF-0.0313169066
aF-0.0313199979
aF-0.0313245209
aF-0.031330263099999998
aF-0.031336993600000002
aF-0.031344484300000003
aF-0.031352511600000001
aF-0.031360847599999998
aF-0.031369260099999997
aF-0.031377506300000003
aF-0.031385356000000003
aF-0.031392588899999997
aF-0.031399023200000001
aF-0.031404529899999999
aF-0.031409051399999999
aF-0.031412585799999997
aF-0.031415134800000001
aF-0.031416725800000003
aF-0.031417397499999999
aF-0.031417150999999997
aF-0.0314160354
aF-0.031414155800000003
aF-0.031411595
aF-0.031408530699999999
aF-0.031405002199999997
aF-0.031400876699999997
aF-0.031396626300000001
aF-0.031392370199999999
aF-0.031388420200000003
aF-0.031384741600000002
aF-0.031381392700000003
aF-0.031378420599999998
aF-0.031375819399999998
aF-0.031373602
aF-0.0313718147
aF-0.0313705133
aF-0.031369628900000002
aF-0.031369192499999997
aF-0.031369186899999998
aF-0.031369599800000002
aF-0.031370403300000002
aF-0.031371564300000002
aF-0.031373033000000002
aF-0.031374757699999999
aF-0.0313766932
aF-0.031378782899999999
aF-0.0313809346
aF-0.031383045900000003
aF-0.031385222599999998
aF-0.031387186400000003
aF-0.031388938900000003
aF-0.031390557700000002
aF-0.031392004799999998
aF-0.031393264099999998
aF-0.031394340399999998
aF-0.031395235600000002
aF-0.031395942900000001
aF-0.0313964563
aF-0.031396777700000003
aF-0.0313969152
aF-0.031396882299999998
aF-0.031396696100000003
aF-0.031396375999999997
aF-0.031395941500000003
aF-0.0313954127
aF-0.031394809799999999
aF-0.031394152600000003
aF-0.031393459999999998
aF-0.031392751500000003
aF-0.031392045700000003
aF-0.031391359899999999
aF-0.031390710500000002
aF-0.031390114599999998
aF-0.031389589500000002
aF-0.031389147899999997
aF-0.031388793900000003
aF-0.031388534599999997
aF-0.031388371399999997
aF-0.031388299699999997
aF-0.0313883124
aF-0.031388399800000001
aF-0.031388551200000003
aF-0.031388756099999998
aF-0.031389005099999999
aF-0.031389289700000003
aF-0.031389602500000002
aF-0.031389936200000003
aF-0.031390283599999999
aF-0.031390637300000003
aF-0.0313909889
aF-0.031391328900000001
aF-0.031391648199999997
aF-0.031391938100000003
aF-0.031392189799999998
aF-0.031392394599999998
aF-0.031392545700000003
aF-0.031392643200000001
aF-0.031392687699999998
aF-0.031392680100000001
aF-0.031392624399999999
aF-0.031392524599999999
aF-0.031392385600000003
aF-0.031392212000000003
aF-0.0313920086
aF-0.031391781000000001
aF-0.0313915372
aF-0.031391286800000001
aF-0.031391038099999997
aF-0.031390798599999999
aF-0.031390571899999997
aF-0.031390364599999998
aF-0.031390182900000001
aF-0.031390028600000001
aF-0.031389903699999999
aF-0.031389809800000001
aF-0.031389747400000001
aF-0.031389716099999999
aF-0.031389714399999998
aF-0.031389740200000002
aF-0.031389790700000003
aF-0.031389862800000001
aF-0.031389953300000002
aF-0.031390058999999998
aF-0.031390176700000001
aF-0.031390302799999999
aF-0.031390433600000003
aF-0.031390565199999998
aF-0.031390693599999998
aF-0.0313908148
aF-0.031390925200000003
aF-0.0313910222
aF-0.031391103400000002
aF-0.0313911677
aF-0.031391214399999999
aF-0.031391243800000003
aF-0.031391256800000003
aF-0.031391254700000003
aF-0.031391239100000003
aF-0.031391211500000002
aF-0.031391173699999997
aF-0.031391127099999999
aF-0.031391073399999997
aF-0.031391014100000003
aF-0.031390950799999998
aF-0.031390885399999999
aF-0.031390819600000001
aF-0.031390755399999998
aF-0.031390694800000001
aF-0.031390639800000002
aF-0.031390591500000002
aF-0.031390551000000003
aF-0.0313905191
aF-0.031390495900000003
aF-0.031390481300000002
aF-0.0313904749
aF-0.031390476200000003
aF-0.0313904843
aF-0.031390498500000003
aF-0.031390517999999999
aF-0.031390541899999999
aF-0.031390569399999999
aF-0.031390599599999999
aF-0.031390631500000002
aF-0.031390664200000001
aF-0.031390696699999998
aF-0.031390728100000001
aF-0.031390757200000001
aF-0.031390783499999998
aF-0.031390806299999997
aF-0.031390825300000001
aF-0.031390840199999999
aF-0.031390850999999997
aF-0.031390857699999997
aF-0.031390860600000001
aF-0.031390859799999997
aF-0.031390855799999999
aF-0.031390848800000003
aF-0.031390839199999999
aF-0.031390827500000003
aF-0.031390813900000002
aF-0.031390798900000003
aF-0.031390782899999997
aF-0.031390766399999999
aF-0.031390750000000002
aF-0.031390734300000001
aF-0.0313907197
aF-0.031390706599999998
aF-0.031390695199999999
aF-0.031390685799999998
aF-0.031390678599999999
aF-0.031390673500000001
aF-0.031390670400000001
aF-0.0313906693
aF-0.031390670000000002
aF-0.0313906724
aF-0.031390676100000001
aF-0.031390681099999998
aF-0.031390687100000002
aF-0.031390693900000002
aF-0.031390701399999998
aF-0.0313907093
aF-0.031390717499999998
aF-0.031390725600000002
aF-0.031390733499999997
aF-0.031390741
aF-0.031390747699999999
aF-0.031390753700000003
aF-0.031390758599999999
aF-0.031390762500000002
aF-0.031390765399999999
aF-0.031390767200000003
aF-0.031390767999999999
aF-0.031390767999999999
aF-0.031390767
aF-0.031390765399999999
aF-0.031390763100000003
aF-0.031390760199999999
aF-0.031390756899999997
aF-0.031390753200000003
aF-0.0313907493
aF-0.0313907452
aF-0.031390741
aF-0.031390736900000001
aF-0.031390732999999997
aF-0.031390729499999999
aF-0.031390726299999998
aF-0.031390723600000003
aF-0.031390721500000003
aF-0.031390719900000003
aF-0.031390718900000003
aF-0.031390718400000003
aF-0.031390718400000003
aaa(lp90
g36
a(lp91
F0.00198002061
aF0.00170709323
aF0.0018382116300000001
aF0.0017412355300000001
aF0.00163406009
aF0.0015467197799999999
aF0.00150654011
aF0.00141066001
aF0.00135358061
aF0.0013161041
aF0.00128503835
aF0.0012550395000000001
aF0.00121532124
aF0.0011935393600000001
aF0.0011828213299999999
aF0.0011731732000000001
aF0.0011626008900000001
aF0.0011529368999999999
aF0.0011501356799999999
aF0.0011516537100000001
aF0.00115583425
aF0.0011640498
aF0.00117706975
aF0.00119462396
aF0.00121628692
aF0.0012414025700000001
aF0.00126869083
aF0.0012965555
aF0.0013233703900000001
aF0.00134872235
aF0.00137549941
aF0.0013958529500000001
aF0.00141563505
aF0.00142940996
aF0.0014413785899999999
aF0.00145284687
aF0.0014469076500000001
aF0.0014497450100000001
aF0.00144598259
aF0.0014395876800000001
aF0.00143176728
aF0.0014226905500000001
aF0.0014125790300000001
aF0.0014021590500000001
aF0.0013911306699999999
aF0.00137968014
aF0.00136790249
aF0.00135648293
aF0.0013455402599999999
aF0.00133539068
aF0.0013263585999999999
aF0.0013186935600000001
aF0.0013124872500000001
aF0.00130773826
aF0.00130438275
aF0.00130231079
aF0.0013014097599999999
aF0.0013015821599999999
aF0.00130270352
aF0.00130472644
aF0.0013076490599999999
aF0.0013114392299999999
aF0.0013159978400000001
aF0.00132106407
aF0.00132639744
aF0.0013317337999999999
aF0.0013369635199999999
aF0.00134212863
aF0.00134406169
aF0.00134695455
aF0.0013493805199999999
aF0.0013508111800000001
aF0.00135168995
aF0.00135180917
aF0.00135121843
aF0.00134996572
aF0.00134807581
aF0.0013456930199999999
aF0.0013428614400000001
aF0.00133968037
aF0.0013363143699999999
aF0.0013328870799999999
aF0.00132949526
aF0.00132624972
aF0.00132325178
aF0.00132052813
aF0.00131813534
aF0.0013161185
aF0.00131449331
aF0.00131327171
aF0.00131247136
aF0.0013121120400000001
aF0.0013122076999999999
aF0.0013126709799999999
aF0.0013133984
aF0.00131438883
aF0.0013156051100000001
aF0.00131701521
aF0.0013187076999999999
aF0.0013205989599999999
aF0.0013223833800000001
aF0.0013241229099999999
aF0.00132622665
aF0.0013280919600000001
aF0.0013298039099999999
aF0.0013317700599999999
aF0.0013335966799999999
aF0.00133484926
aF0.0013355739200000001
aF0.0013345664399999999
aF0.0013345381700000001
aF0.0013347658200000001
aF0.00133442716
aF0.0013340100899999999
aF0.00133360659
aF0.00133323118
aF0.00133274239
aF0.00133210257
aF0.00133133249
aF0.0013304320000000001
aF0.00132952816
aF0.0013285892000000001
aF0.0013276798899999999
aF0.0013268039
aF0.0013260039200000001
aF0.0013253188899999999
aF0.0013247535899999999
aF0.0013243091600000001
aF0.0013240304799999999
aF0.00132414963
aF0.00132412202
aF0.00132391309
aF0.00132401917
aF0.0013242597599999999
aF0.00132450258
aF0.00132476444
aF0.00132506155
aF0.0013253943900000001
aF0.0013257574400000001
aF0.0013261456499999999
aF0.0013265415400000001
aF0.00132692767
aF0.0013272981900000001
aF0.0013276470599999999
aF0.0013279672899999999
aF0.00132825538
aF0.0013285110100000001
aF0.0013287330999999999
aF0.0013289196199999999
aF0.0013290696900000001
aF0.00132918275
aF0.0013292567299999999
aF0.0013292893000000001
aF0.00132927808
aF0.0013292208800000001
aF0.00132911805
aF0.00132897876
aF0.0013288197099999999
aF0.0013286484999999999
aF0.0013284686599999999
aF0.0013282871600000001
aF0.0013281097600000001
aF0.00132793992
aF0.0013277803600000001
aF0.00132763357
aF0.0013275014700000001
aF0.0013273852400000001
aF0.0013272854799999999
aF0.0013272025200000001
aF0.0013271366299999999
aF0.0013270885100000001
aF0.00132705937
aF0.00132705102
aF0.0013270652200000001
aF0.0013271020599999999
aF0.0013271601300000001
aF0.0013272363300000001
aF0.0013273243500000001
aF0.0013274182900000001
aF0.0013275164000000001
aF0.00132761485
aF0.0013277120900000001
aF0.00132780614
aF0.0013278939900000001
aF0.0013279731700000001
aF0.00132804166
aF0.0013280984999999999
aF0.00132815726
aF0.0013282151900000001
aF0.0013282485700000001
aF0.00132825977
aF0.00132825776
aF0.00132824457
aF0.0013282171399999999
aF0.00132818086
aF0.00132813896
aF0.0013280922699999999
aF0.0013280421400000001
aF0.00132798963
aF0.0013279369499999999
aF0.0013278851299999999
aF0.0013278348
aF0.0013277867399999999
aF0.00132774167
aF0.0013277002500000001
aF0.00132766299
aF0.00132763087
aF0.00132760541
aF0.00132758821
aF0.00132758018
aF0.00132758127
aF0.0013275903600000001
aF0.00132760558
aF0.0013276251399999999
aF0.00132764797
aF0.0013276736999999999
aF0.00132770146
aF0.00132773002
aF0.00132775862
aF0.00132778666
aF0.00132781354
aF0.0013278386400000001
aF0.00132786151
aF0.00132788186
aF0.0013278994200000001
aF0.00132791392
aF0.00132792511
aF0.0013279327199999999
aF0.0013279365
aF0.0013279361500000001
aF0.0013279317000000001
aF0.00132792401
aF0.0013279139100000001
aF0.0013279018999999999
aF0.00132788852
aF0.00132787432
aF0.00132785981
aF0.0013278454099999999
aF0.0013278314700000001
aF0.0013278183199999999
aF0.0013278062199999999
aF0.0013277953699999999
aF0.00132778591
aF0.00132777792
aF0.0013277714999999999
aF0.0013277667400000001
aF0.00132776378
aF0.0013277627599999999
aF0.0013277637299999999
aF0.0013277663999999999
aF0.0013277704300000001
aF0.0013277755699999999
aF0.0013277816000000001
aF0.00132778829
aF0.00132779536
aF0.0013278026000000001
aF0.00132780979
aF0.00132781678
aF0.0013278233799999999
aF0.0013278294600000001
aF0.0013278349299999999
aF0.0013278397099999999
aF0.0013278437400000001
aF0.0013278470000000001
aF0.0013278494699999999
aF0.00132785109
aF0.00132785163
aF0.00132785098
aF0.00132784939
aF0.0013278471399999999
aF0.0013278443300000001
aF0.0013278411
aF0.0013278375899999999
aF0.00132783394
aF0.00132783025
aF0.00132782662
aF0.00132782313
aF0.0013278198499999999
aF0.00132781684
aF0.00132781413
aF0.00132781175
aF0.00132780973
aF0.0013278080900000001
aF0.00132780686
aF0.00132780605
aF0.0013278057000000001
aF0.0013278058600000001
aF0.00132780652
aF0.00132780757
aF0.00132780892
aF0.0013278105
aF0.0013278122600000001
aF0.0013278141100000001
aF0.0013278159899999999
aF0.00132781786
aF0.00132781967
aF0.00132782139
aF0.00132782297
aF0.0013278243999999999
aF0.0013278256600000001
aF0.0013278267399999999
aF0.00132782763
aF0.0013278283300000001
aF0.00132782883
aF0.0013278290900000001
aF0.0013278291
aF0.00132782883
aF0.0013278283200000001
aF0.00132782765
aF0.0013278268600000001
aF0.0013278259799999999
aF0.00132782504
aF0.00132782407
aF0.0013278231100000001
aaa(lp92
g38
a(lp93
F0.0096996092699999995
aF0.0114295779
aF0.0127116279
aF0.0136547969
aF0.014765382400000001
aF0.0158116627
aF0.016719640099999999
aF0.017575862899999999
aF0.0183702021
aF0.019074680600000001
aF0.019696670900000001
aF0.020256192999999999
aF0.020749458200000001
aF0.0211428751
aF0.0214552509
aF0.021720691100000002
aF0.021956611500000001
aF0.022168818900000001
aF0.022353685700000001
aF0.022513100800000001
aF0.0226536588
aF0.0227795124
aF0.0228930021
aF0.022995506499999999
aF0.023088370300000001
aF0.0231732776
aF0.023251569999999999
aF0.023324733800000001
aF0.023394731299999999
aF0.023464529599999999
aF0.023533631100000001
aF0.023605349899999999
aF0.023684092800000001
aF0.023771916300000001
aF0.023866624999999999
aF0.0239685839
aF0.024083260799999999
aF0.0241908833
aF0.024310642699999999
aF0.024438974499999998
aF0.0245714743
aF0.024707144300000001
aF0.0248434591
aF0.0249789357
aF0.0251119611
aF0.0252403995
aF0.025362496200000001
aF0.025476683
aF0.025582207100000001
aF0.0256784956
aF0.0257651042
aF0.025841835899999999
aF0.025908804800000001
aF0.025966357499999999
aF0.026015082299999999
aF0.0260556716
aF0.0260889511
aF0.026115771499999999
aF0.026136932099999999
aF0.026153236999999999
aF0.026165548600000001
aF0.026174807099999999
aF0.026181846799999998
aF0.026187380999999999
aF0.026192305700000001
aF0.026197470600000002
aF0.026203590499999999
aF0.0262116513
aF0.0262207167
aF0.0262296778
aF0.0262415129
aF0.0262564549
aF0.026273175100000001
aF0.0262920125
aF0.026312920699999999
aF0.0263352803
aF0.0263586177
aF0.026382460600000001
aF0.026406292200000001
aF0.026429563600000001
aF0.026451758499999999
aF0.026472458899999999
aF0.026491313999999998
aF0.026508000699999999
aF0.026522279700000002
aF0.026534022399999999
aF0.026543157899999999
aF0.026549685199999999
aF0.0265536642
aF0.026555207000000001
aF0.026554469099999999
aF0.026551673899999999
aF0.026547071200000001
aF0.026540935099999999
aF0.026533462899999999
aF0.0265248506
aF0.026515409899999998
aF0.026505473500000001
aF0.026495379600000001
aF0.026485491199999999
aF0.026475995400000001
aF0.026466869600000002
aF0.0264582737
aF0.026450784599999999
aF0.026444493100000001
aF0.0264395043
aF0.026436388299999999
aF0.0264352235
aF0.026434248899999999
aF0.0264332192
aF0.026432377699999999
aF0.026433805500000001
aF0.026436810799999998
aF0.026440257000000002
aF0.026443812899999999
aF0.026447496099999999
aF0.02645138
aF0.0264554751
aF0.0264596899
aF0.026463818199999999
aF0.0264677421
aF0.026471421299999999
aF0.026474713699999999
aF0.0264775093
aF0.026479754800000001
aF0.026481423699999999
aF0.0264824884
aF0.026482926699999999
aF0.026482787300000001
aF0.026482213300000002
aF0.026481221700000002
aF0.0264800091
aF0.026478124400000001
aF0.026475831599999999
aF0.026473384999999999
aF0.0264707816
aF0.0264680214
aF0.026465145200000002
aF0.026462217600000001
aF0.026459305400000001
aF0.026456468100000002
aF0.026453750700000001
aF0.026451183
aF0.026448790100000001
aF0.0264465958
aF0.026444616300000001
aF0.0264428627
aF0.0264413436
aF0.026440063600000001
aF0.026439021600000001
aF0.026438209800000001
aF0.026437618199999999
aF0.026437233399999999
aF0.026437038
aF0.026437006999999998
aF0.026437109300000001
aF0.026437326300000001
aF0.026437647500000001
aF0.026438043200000001
aF0.026438485099999999
aF0.026438942199999999
aF0.026439384900000001
aF0.026439792699999999
aF0.026440152099999999
aF0.026440453900000001
aF0.0264406921
aF0.026440862400000001
aF0.026440962200000001
aF0.026440990000000001
aF0.0264409455
aF0.026440829799999999
aF0.026440645499999998
aF0.0264403964
aF0.026440088399999999
aF0.0264397299
aF0.0264393328
aF0.026438912200000001
aF0.026438482199999998
aF0.0264380478
aF0.0264376206
aF0.026437214899999999
aF0.0264368385
aF0.026436502000000001
aF0.026436213600000001
aF0.026435977999999999
aF0.0264357975
aF0.026435672399999999
aF0.026435602200000002
aF0.026435598800000001
aF0.0264356668
aF0.0264357879
aF0.026435957199999999
aF0.0264361691
aF0.026436415299999998
aF0.026436686399999999
aF0.0264369733
aF0.026437268
aF0.026437562099999999
aF0.026437847600000002
aF0.026438117000000001
aF0.026438364900000001
aF0.026438587199999999
aF0.0264387804
aF0.026438941699999999
aF0.026439068999999999
aF0.026439160900000001
aF0.026439216799999998
aF0.026439237099999999
aF0.0264392234
aF0.026439178399999999
aF0.026439105800000001
aF0.0264390096
aF0.026438894399999999
aF0.026438765199999999
aF0.0264386265
aF0.026438483700000001
aF0.026438341800000001
aF0.026438205400000001
aF0.0264380777
aF0.026437961199999999
aF0.0264378579
aF0.026437769199999999
aF0.0264376965
aF0.0264376404
aF0.026437601500000001
aF0.0264375801
aF0.0264375757
aF0.0264375879
aF0.0264376154
aF0.026437656699999999
aF0.026437709600000001
aF0.026437772200000001
aF0.026437841900000002
aF0.0264379161
aF0.0264379922
aF0.026438067700000002
aF0.026438140499999999
aF0.026438208899999999
aF0.026438271400000001
aF0.026438327000000001
aF0.0264383747
aF0.026438414100000002
aF0.0264384446
aF0.026438466099999999
aF0.026438478599999999
aF0.0264384823
aF0.026438477700000001
aF0.0264384654
aF0.026438446099999999
aF0.026438420899999999
aF0.026438390799999999
aF0.0264383573
aF0.0264383215
aF0.026438284900000001
aF0.026438248500000001
aF0.026438213299999999
aF0.026438180200000001
aF0.0264381497
aF0.026438122599999999
aF0.026438099199999999
aF0.0264380798
aF0.026438064800000001
aF0.0264380541
aF0.026438047900000001
aF0.026438046199999999
aF0.0264380486
aF0.026438054999999999
aF0.026438064899999999
aF0.026438077800000001
aF0.026438093100000001
aF0.026438110099999999
aF0.0264381281
aF0.0264381466
aF0.026438164900000002
aF0.026438182500000001
aF0.026438198999999999
aF0.026438214099999999
aF0.0264382274
aF0.026438238900000001
aF0.026438248399999999
aF0.026438255800000001
aF0.026438261000000001
aF0.026438264
aF0.026438264999999999
aF0.026438264
aF0.026438261099999999
aF0.0264382565
aF0.0264382505
aF0.026438243199999999
aF0.026438235000000001
aF0.026438226200000001
aF0.026438217100000001
aF0.026438208000000001
aF0.026438199200000002
aF0.026438190899999998
aF0.0264381832
aF0.026438176300000001
aF0.026438170300000001
aF0.0264381653
aF0.026438161299999999
aF0.026438158400000002
aF0.026438156500000001
aF0.0264381557
aF0.026438156000000001
aF0.0264381572
aF0.026438159400000001
aF0.0264381622
aF0.0264381658
aF0.026438169800000001
aF0.026438174200000001
aF0.0264381788
aF0.026438183399999999
aF0.026438188000000001
aF0.026438192199999998
aaa(lp94
g40
a(lp95
F0
aF0
aF0
aF0
aF0
aF0
aF0
aF0
aF0
aF0
aF0
aF0
aF0
aF0
aF0
aF0
aF0
aF0
aF0
aF0
aF0
aF0
aF0
aF0
aF0
aF0
aF0
aF0
aF0
aF0
aF0
aF0
aF0
aF0
aF0
aF0
aF0
aF0
aF0
aF0
aF0
aF0
aF0
aF0
aF0
aF0
aF0
aF0
aF0
aF0
aF0
aF0
aF0
aF0
aF0
aF0
aF0
aF0
aF0
aF0
aF0
aF0
aF0
aF0
aF0
aF0
aF0
aF0
aF0
aF0
aF0
aF0
aF0
aF0
aF0
aF0
aF0
aF0
aF0
aF0
aF0
aF0
aF0
aF0
aF0
aF0
aF0
aF0
aF0
aF0
aF0
aF0
aF0
aF0
aF0
aF0
aF0
aF0
aF0
aF0
aF0
aF0
aF0
aF0
aF0
aF0
aF0
aF0
aF0
aF0
aF0
aF0
aF0
aF0
aF0
aF0
aF0
aF0
aF0
aF0
aF0
aF0
aF0
aF0
aF0
aF0
aF0
aF0
aF0
aF0
aF0
aF0
aF0
aF0
aF0
aF0
aF0
aF0
aF0
aF0
aF0
aF0
aF0
aF0
aF0
aF0
aF0
aF0
aF0
aF0
aF0
aF0
aF0
aF0
aF0
aF0
aF0
aF0
aF0
aF0
aF0
aF0
aF0
aF0
aF0
aF0
aF0
aF0
aF0
aF0
aF0
aF0
aF0
aF0
aF0
aF0
aF0
aF0
aF0
aF0
aF0
aF0
aF0
aF0
aF0
aF0
aF0
aF0
aF0
aF0
aF0
aF0
aF0
aF0
aF0
aF0
aF0
aF0
aF0
aF0
aF0
aF0
aF0
aF0
aF0
aF0
aF0
aF0
aF0
aF0
aF0
aF0
aF0
aF0
aF0
aF0
aF0
aF0
aF0
aF0
aF0
aF0
aF0
aF0
aF0
aF0
aF0
aF0
aF0
aF0
aF0
aF0
aF0
aF0
aF0
aF0
aF0
aF0
aF0
aF0
aF0
aF0
aF0
aF0
aF0
aF0
aF0
aF0
aF0
aF0
aF0
aF0
aF0
aF0
aF0
aF0
aF0
aF0
aF0
aF0
aF0
aF0
aF0
aF0
aF0
aF0
aF0
aF0
aF0
aF0
aF0
aF0
aF0
aF0
aF0
aF0
aF0
aF0
aF0
aF0
aF0
aF0
aF0
aF0
aF0
aF0
aF0
aF0
aF0
aF0
aF0
aF0
aF0
aF0
aF0
aF0
aF0
aF0
aF0
aF0
aF0
aF0
aF0
aF0
aF0
aF0
aF0
aF0
aF0
aF0
aF0
aF0
aF0
aF0
aaa(lp96
g42
a(lp97
F4.4059639400000004
aF5.8228478199999998
aF5.9896179500000004
aF6.6775736099999996
aF7.5296041999999996
aF8.3404612399999998
aF8.9169010800000006
aF9.7789587600000001
aF10.4539782
aF10.994514199999999
aF11.4697852
aF11.9201155
aF12.423258499999999
aF12.7603516
aF12.9798581
aF13.171528199999999
aF13.3588956
aF13.5297687
aF13.632492900000001
aF13.688045900000001
aF13.713051200000001
aF13.698215299999999
aF13.639127800000001
aF13.5402065
aF13.4074413
aF13.2487637
aF13.076204600000001
aF12.9030208
aF12.7414542
aF12.594639600000001
aF12.442326400000001
aF12.336910400000001
aF12.240174
aF12.186511700000001
aF12.1474768
aF12.114768099999999
aF12.194084699999999
aF12.2164988
aF12.2842374
aF12.3717401
aF12.4701454
aF12.578280899999999
aF12.6940594
aF12.8124091
aF12.9348265
aF13.0594354
aF13.185063400000001
aF13.3064573
aF13.422403600000001
aF13.530301100000001
aF13.627435
aF13.7116486
aF13.782031699999999
aF13.8384784
aF13.881490700000001
aF13.9120127
aF13.9311138
aF13.9398035
aF13.939306
aF13.9302963
aF13.913151900000001
aF13.888521600000001
aF13.8575219
aF13.8224064
aF13.785314700000001
aF13.7485017
aF13.7130169
aF13.6789047
aF13.6684023
aF13.651044000000001
aF13.638109399999999
aF13.6334064
aF13.6332746
aF13.639302000000001
aF13.651121
aF13.6681778
aF13.690146199999999
aF13.715853600000001
aF13.7448256
aF13.7761788
aF13.8085632
aF13.840944
aF13.872492899999999
aF13.9022779
aF13.9294555
aF13.953762899999999
aF13.9747372
aF13.9920239
aF14.005508900000001
aF14.015128600000001
aF14.020796000000001
aF14.022437999999999
aF14.0200388
aF14.0143488
aF14.0062122
aF13.995714400000001
aF13.9832515
aF13.9691893
aF13.9530061
aF13.9354619
aF13.9188764
aF13.9027826
aF13.884247800000001
aF13.8678933
aF13.8531221
aF13.837005700000001
aF13.8226163
aF13.813119500000001
aF13.807520999999999
aF13.8144341
aF13.8143311
aF13.813205200000001
aF13.8167551
aF13.8210351
aF13.825258399999999
aF13.829326
aF13.8342908
aF13.840431199999999
aF13.847565400000001
aF13.855621599999999
aF13.863634299999999
aF13.8718202
aF13.879655700000001
aF13.887072999999999
aF13.8937396
aF13.8993596
aF13.9038857
aF13.9072999
aF13.9092898
aF13.9082069
aF13.908046000000001
aF13.9091322
aF13.907665
aF13.9050633
aF13.9023895
aF13.899519400000001
aF13.896334700000001
aF13.892847
aF13.8891206
aF13.885217300000001
aF13.881286599999999
aF13.8774725
aF13.873828400000001
aF13.8704073
aF13.8672688
aF13.8644441
aF13.8619393
aF13.859765299999999
aF13.8579382
aF13.856464000000001
aF13.855343700000001
aF13.8545885
aF13.8542106
aF13.854220700000001
aF13.854625800000001
aF13.8554119
aF13.8565056
aF13.8577814
aF13.8591733
aF13.8606453
aF13.862135200000001
aF13.8635903
aF13.8649776
aF13.866272499999999
aF13.8674534
aF13.868504099999999
aF13.8694142
aF13.8701785
aF13.870794
aF13.8712584
aF13.8715671
aF13.8717123
aF13.871682
aF13.871465600000001
aF13.8710655
aF13.870496299999999
aF13.869786400000001
aF13.8689868
aF13.868142499999999
aF13.867270400000001
aF13.8664039
aF13.865557000000001
aF13.864748000000001
aF13.8640019
aF13.8633384
aF13.8627731
aF13.862313
aF13.861859000000001
aF13.8614356
aF13.8612172
aF13.861179999999999
aF13.861256600000001
aF13.8614303
aF13.8617203
aF13.8620839
aF13.862494399999999
aF13.8629426
aF13.863415699999999
aF13.863903000000001
aF13.8643857
aF13.864854299999999
aF13.8653026
aF13.8657238
aF13.866111399999999
aF13.86646
aF13.8667654
aF13.8670201
aF13.8672132
aF13.8673337
aF13.8673757
aF13.8673412
aF13.867239700000001
aF13.867086499999999
aF13.866896499999999
aF13.8666792
aF13.866439400000001
aF13.8661849
aF13.8659268
aF13.865671499999999
aF13.865424300000001
aF13.865190500000001
aF13.864974999999999
aF13.864781600000001
aF13.8646128
aF13.864470600000001
aF13.864357
aF13.864273799999999
aF13.8642228
aF13.8642053
aF13.864223000000001
aF13.8642748
aF13.8643538
aF13.8644529
aF13.864567600000001
aF13.864693000000001
aF13.864824199999999
aF13.8649567
aF13.865086700000001
aF13.865211199999999
aF13.865327499999999
aF13.865433100000001
aF13.865526600000001
aF13.8656068
aF13.8656729
aF13.8657243
aF13.865760399999999
aF13.865780300000001
aF13.865783199999999
aF13.8657691
aF13.8657404
aF13.8657
aF13.865650199999999
aF13.865593199999999
aF13.865531000000001
aF13.865466100000001
aF13.8654005
aF13.8653358
aF13.865273800000001
aF13.8652157
aF13.8651628
aF13.8651158
aF13.8650755
aF13.8650422
aF13.865016199999999
aF13.864997499999999
aF13.8649866
aF13.864985000000001
aF13.8649933
aF13.8650097
aF13.8650316
aF13.865058400000001
aF13.8650886
aF13.865120900000001
aF13.865154199999999
aF13.865187499999999
aF13.8652201
aF13.865251000000001
aF13.8652798
aF13.865306
aF13.8653292
aF13.865349200000001
aF13.8653659
aF13.8653789
aF13.865388299999999
aF13.8653938
aF13.865395299999999
aF13.8653925
aF13.8653855
aF13.8653751
aF13.865362299999999
aF13.8653476
aF13.865331400000001
aF13.8653146
aF13.8652976
aF13.8652809
aF13.8652649
aF13.8652499
aF13.8652362
aF13.865224
aF13.865213300000001
aF13.8652043
aF13.8651971
aF13.8651917
aF13.8651882
aF13.8651868
aF13.865187499999999
aF13.865190500000001
aF13.8651955
aF13.865201900000001
aF13.8652093
aF13.865217400000001
aF13.8652259
aF13.865234600000001
aF13.8652432
aaa(lp98
S'Res_Flow[0]'
p99
a(lp100
F-4.9317500900000004
aF-4.9480601599999998
aF-4.9652825399999996
aF-4.98777311
aF-4.99658348
aF-4.9695534400000003
aF-4.9514371400000003
aF-4.9615400300000001
aF-4.9848811499999996
aF-5.0004297600000003
aF-5.0183117099999999
aF-5.0451190300000004
aF-5.0680190500000002
aF-5.0676813100000002
aF-5.0585610799999996
aF-5.0526480899999999
aF-5.0546833500000004
aF-5.0657383300000003
aF-5.0782353200000001
aF-5.0880351599999996
aF-5.09914617
aF-5.1139660999999998
aF-5.1319853000000002
aF-5.1520256599999996
aF-5.1737852000000002
aF-5.1974404400000003
aF-5.2225180199999999
aF-5.2482127299999997
aF-5.2750884400000002
aF-5.3069555800000003
aF-5.3325606399999996
aF-5.3318198700000003
aF-5.3485508099999999
aF-5.3510090000000003
aF-5.3716182899999998
aF-5.3928059199999998
aF-5.4228840700000003
aF-5.4570599
aF-5.4670055900000003
aF-5.4801765199999997
aF-5.4987115099999997
aF-5.5166845699999998
aF-5.5366216599999998
aF-5.5568414800000001
aF-5.5790174500000003
aF-5.6019638699999996
aF-5.6252179699999996
aF-5.6479891000000002
aF-5.6708539299999998
aF-5.6938318900000002
aF-5.71664919
aF-5.7388172199999996
aF-5.7601241500000002
aF-5.7807421899999998
aF-5.8012064700000003
aF-5.8222580199999996
aF-5.8446506500000002
aF-5.8688877100000001
aF-5.8950459200000003
aF-5.9227549399999999
aF-5.9514247899999999
aF-5.9801645900000002
aF-6.0073722500000004
aF-6.03090438
aF-6.0512523900000001
aF-6.0726087700000004
aF-6.0954345099999996
aF-6.12187605
aF-6.1563873500000001
aF-6.1774069200000001
aF-6.1878564000000003
aF-6.19778026
aF-6.2117988000000004
aF-6.2206371000000003
aF-6.2284799099999999
aF-6.2414857699999997
aF-6.2560889199999998
aF-6.2698740500000003
aF-6.2848731200000003
aF-6.3024455899999996
aF-6.32147127
aF-6.3400592299999996
aF-6.3577601399999999
aF-6.3749212100000001
aF-6.3909678699999999
aF-6.4061045099999996
aF-6.4212123800000001
aF-6.4368525700000001
aF-6.4535486000000004
aF-6.47174622
aF-6.4914537399999999
aF-6.5122638100000003
aF-6.5329460399999997
aF-6.5523981300000003
aF-6.5694256600000003
aF-6.58354062
aF-6.5958889200000002
aF-6.6089747299999999
aF-6.62553342
aF-6.6445432899999997
aF-6.6633668300000002
aF-6.6853963700000003
aF-6.7120338799999999
aF-6.73575195
aF-6.7545696099999999
aF-6.7628490499999998
aF-6.7579259499999997
aF-6.76842363
aF-6.8269432700000001
aF-6.8711507799999998
aF-6.89003648
aF-6.8683920199999999
aF-6.8380967300000002
aF-6.8201617199999998
aF-6.8276515900000003
aF-6.8606485299999997
aF-6.9003109599999997
aF-6.9277814700000002
aF-6.9377280099999998
aF-6.9537526200000004
aF-6.9744116900000002
aF-6.9929419800000003
aF-7.0038098399999997
aF-7.0169141699999997
aF-7.0350445700000002
aF-7.0545284199999996
aF-7.0717790100000002
aF-7.08737993
aF-7.1017771600000001
aF-7.1119268599999996
aF-7.1189508100000003
aF-7.1513134699999998
aF-7.1593568000000003
aF-7.1521258300000001
aF-7.1463429100000004
aF-7.1452780000000002
aF-7.15259584
aF-7.1687379199999999
aF-7.1906006500000004
aF-7.2138234299999997
aF-7.2344519700000003
aF-7.2518298899999998
aF-7.2675330000000002
aF-7.2828299799999998
aF-7.2986074500000004
aF-7.3157253400000002
aF-7.3347800999999997
aF-7.3555802699999999
aF-7.3775760100000003
aF-7.4006617700000001
aF-7.4248214700000004
aF-7.44990211
aF-7.4756966499999997
aF-7.5020850899999996
aF-7.5290560199999996
aF-7.55574002
aF-7.5785764799999997
aF-7.5943409800000001
aF-7.6066737800000004
aF-7.6153585499999998
aF-7.6199066599999998
aF-7.6226592499999999
aF-7.6258849
aF-7.6311897000000002
aF-7.6394014300000004
aF-7.6508489900000001
aF-7.66554628
aF-7.68333873
aF-7.7042079599999997
aF-7.7282700000000002
aF-7.7556369600000004
aF-7.7860590600000004
aF-7.8183321899999996
aF-7.8504869800000003
aF-7.8813346400000004
aF-7.9107928200000002
aF-7.9388393600000002
aF-7.9636830300000003
aF-7.9813476899999998
aF-7.99615192
aF-8.0144872399999993
aF-8.0325077100000009
aF-8.0485761
aF-8.0651732599999999
aF-8.0833420900000004
aF-8.1035939700000004
aF-8.1263648400000008
aF-8.1518177600000001
aF-8.1757898099999995
aF-8.1924144299999995
aF-8.2018328799999995
aF-8.2053729400000002
aF-8.2117113600000007
aF-8.2224605799999999
aF-8.2332031899999993
aF-8.2445281500000007
aF-8.2579414300000007
aF-8.2730071699999996
aF-8.2874001699999997
aF-8.2991330699999999
aF-8.3096477499999999
aF-8.3207173500000007
aF-8.3329725400000001
aF-8.3465711000000002
aF-8.3618231299999994
aF-8.3790890999999998
aF-8.3981607900000004
aF-8.4181761399999999
aF-8.4378977800000001
aF-8.45626167
aF-8.4725022699999997
aF-8.4863414299999995
aF-8.4983763499999991
aF-8.50949198
aF-8.5203405300000004
aF-8.5309054500000006
aF-8.5397007600000006
aF-8.5462960900000002
aF-8.5527140599999996
aF-8.56047768
aF-8.5701186800000002
aF-8.5816421100000007
aF-8.5950460199999998
aF-8.6103280899999994
aF-8.6274625100000009
aF-8.6464404100000003
aF-8.6672250399999999
aF-8.68945553
aF-8.7121533000000007
aF-8.7336474800000001
aF-8.7518843499999992
aF-8.7659283200000004
aF-8.7775795199999997
aF-8.78886945
aF-8.7997533000000008
aF-8.8099575600000009
aF-8.8199021200000001
aF-8.8303194900000008
aF-8.8416282600000002
aF-8.8539314900000008
aF-8.8673062100000006
aF-8.8818967000000004
aF-8.8978997500000006
aF-8.91552422
aF-8.9348925300000008
aF-8.9557562399999995
aF-8.9772182399999991
aF-8.9978479300000007
aF-9.0157850899999996
aF-9.0299977400000007
aF-9.0419045899999997
aF-9.0533189499999995
aF-9.0647880199999999
aF-9.0763550800000008
aF-9.0880330300000001
aF-9.1002016500000007
aF-9.1133012600000001
aF-9.1274856500000006
aF-9.1427511700000004
aF-9.1591205000000002
aF-9.1767388800000003
aF-9.1958677800000004
aF-9.2168510099999992
aF-9.2399279500000002
aF-9.2647491300000002
aF-9.2897701700000006
aF-9.3124150199999995
aF-9.3300459
aF-9.3416972999999999
aF-9.3507143799999994
aF-9.3602699200000004
aF-9.3698484099999995
aF-9.3790657700000004
aF-9.3883196899999994
aF-9.3979918900000001
aF-9.4082073499999996
aF-9.4190159100000006
aF-9.4306138900000001
aF-9.4432601700000003
aF-9.4572333200000003
aF-9.4728584599999994
aF-9.4905460700000006
aF-9.5107213900000005
aF-9.5336124499999997
aF-9.55884833
aF-9.5849945699999992
aF-9.6095824400000005
aF-9.6297215900000008
aF-9.6440434400000008
aF-9.6550775499999997
aF-9.6654023299999992
aF-9.6750031100000005
aF-9.6838849299999996
aF-9.6928583800000006
aF-9.7026886099999992
aF-9.7136107299999992
aF-9.7256467299999994
aF-9.7388731899999996
aF-9.7534382700000002
aF-9.7695528399999993
aF-9.7875281399999992
aF-9.8077394400000006
aF-9.8304133199999999
aF-9.8552434200000008
aF-9.8810137000000005
aF-9.9057242399999996
aF-9.9272695300000002
aF-9.9435787399999995
aF-9.9547102600000006
aF-9.9649059799999993
aF-9.9758178799999992
aF-9.9863861499999995
aF-9.9963999500000007
aF-10.0064115
aaa(lp101
S'Res_Flow[1]'
p102
a(lp103
F-4.8502974700000001
aF-4.86741051
aF-4.9201627600000002
aF-4.9669893399999996
aF-5.0072872400000001
aF-4.9931529599999998
aF-4.9798677199999997
aF-4.9978687700000002
aF-5.0271062799999999
aF-5.0345518299999998
aF-5.0341011099999999
aF-5.0392481099999999
aF-5.0405353399999999
aF-5.0228108999999996
aF-5.0019966399999998
aF-4.9880514099999997
aF-4.9824907400000003
aF-4.9868581599999997
aF-4.9957729999999998
aF-5.0038251100000002
aF-5.01498694
aF-5.0329836700000001
aF-5.0582712900000004
aF-5.0899197899999997
aF-5.12792359
aF-5.1731731200000004
aF-5.2258247500000001
aF-5.2854049099999996
aF-5.3551778900000002
aF-5.4506622
aF-5.5532839999999997
aF-5.5759146199999998
aF-5.61379948
aF-5.6001332599999998
aF-5.6279009699999998
aF-5.6462241200000003
aF-5.6812327399999996
aF-5.7662734699999998
aF-5.73057996
aF-5.7022240999999996
aF-5.6880817400000003
aF-5.6806766800000004
aF-5.6828157600000004
aF-5.68854302
aF-5.6994964899999996
aF-5.7126017100000004
aF-5.7274768800000002
aF-5.7433472200000004
aF-5.7612972400000002
aF-5.7809937500000004
aF-5.80146462
aF-5.8215220299999997
aF-5.84067531
aF-5.8591608400000004
aF-5.8779441200000004
aF-5.8984825399999998
aF-5.9223927700000001
aF-5.9510381099999998
aF-5.9851280300000003
aF-6.0244022099999999
aF-6.0678283200000003
aF-6.1136916699999997
aF-6.1583941700000002
aF-6.1962004000000004
aF-6.2266052399999996
aF-6.2587809400000003
aF-6.2960863399999996
aF-6.3479498100000002
aF-6.4435248500000002
aF-6.5033595599999998
aF-6.5128774900000002
aF-6.5034120900000003
aF-6.4975074599999996
aF-6.4792010600000003
aF-6.4640605799999999
aF-6.4661128999999997
aF-6.4723140399999997
aF-6.4760670400000002
aF-6.4836608699999996
aF-6.4972884799999999
aF-6.5121968199999998
aF-6.5240536499999999
aF-6.5336505799999998
aF-6.5427421600000004
aF-6.5503884100000001
aF-6.5571191300000002
aF-6.5647554399999999
aF-6.57423511
aF-6.5864958700000003
aF-6.60219852
aF-6.62126445
aF-6.6427975899999998
aF-6.66491202
aF-6.6876003400000004
aF-6.71197058
aF-6.7360033100000001
aF-6.7583035599999999
aF-6.7814141399999999
aF-6.8066373899999997
aF-6.8261092999999997
aF-6.8366300500000001
aF-6.8523390300000004
aF-6.8805666299999997
aF-6.9098432299999999
aF-6.9364550200000004
aF-6.9444445100000003
aF-6.9255258299999998
aF-6.9465293700000004
aF-7.0836746799999997
aF-7.1963211500000002
aF-7.1935884899999998
aF-7.10488359
aF-7.01821538
aF-6.9595771900000001
aF-6.95079548
aF-6.99223062
aF-7.0537898500000002
aF-7.0901678400000003
aF-7.0915515999999998
aF-7.1005776300000001
aF-7.12363356
aF-7.1439235300000004
aF-7.1504705700000004
aF-7.1623798299999999
aF-7.1848588500000004
aF-7.2097898999999996
aF-7.2300141599999996
aF-7.2466627600000004
aF-7.2583055500000002
aF-7.2547764199999998
aF-7.2523926599999999
aF-7.3434435599999999
aF-7.3526966099999997
aF-7.3195563400000001
aF-7.2817743300000002
aF-7.2496550400000004
aF-7.2303525899999999
aF-7.2269782999999999
aF-7.2365190500000001
aF-7.2528718300000001
aF-7.2695409900000003
aF-7.2843030799999999
aF-7.2978759100000001
aF-7.3107780399999998
aF-7.3238892199999999
aF-7.33902564
aF-7.35795434
aF-7.3811159599999998
aF-7.4078284600000002
aF-7.4374225599999999
aF-7.4694079100000002
aF-7.5031391699999999
aF-7.5382751499999996
aF-7.5751996500000001
aF-7.61494173
aF-7.6557983800000002
aF-7.68849304
aF-7.7039541299999996
aF-7.7080387899999998
aF-7.7039242300000002
aF-7.6940872699999998
aF-7.6832788299999999
aF-7.6749346300000001
aF-7.6709699200000001
aF-7.6722006299999999
aF-7.6789693300000001
aF-7.6913381300000001
aF-7.7092821599999999
aF-7.7329622699999998
aF-7.76299502
aF-7.8004824499999996
aF-7.8463940499999998
aF-7.8996772699999998
aF-7.9556182800000004
aF-8.0086362300000005
aF-8.0563041399999999
aF-8.0990838800000002
aF-8.13418536
aF-8.1531410500000003
aF-8.1654619999999998
aF-8.1841806399999992
aF-8.2026237399999999
aF-8.2175423700000003
aF-8.2341405200000004
aF-8.2550149299999998
aF-8.28086229
aF-8.3126206899999993
aF-8.3565966399999994
aF-8.4121450600000003
aF-8.4433547499999992
aF-8.4426613100000001
aF-8.4283421999999995
aF-8.4215268999999999
aF-8.42549204
aF-8.4280042599999998
aF-8.4292854500000001
aF-8.4345145899999991
aF-8.4446946500000006
aF-8.4539837099999993
aF-8.4578840900000003
aF-8.4605967100000008
aF-8.4662313900000008
aF-8.475752
aF-8.4891466799999993
aF-8.5070691899999993
aF-8.5306007200000007
aF-8.5597984900000004
aF-8.59270596
aF-8.6251460800000004
aF-8.6525074600000007
aF-8.6716038900000001
aF-8.6820299300000006
aF-8.6869303900000006
aF-8.6905919399999991
aF-8.6958929400000002
aF-8.7015759999999993
aF-8.7021884899999993
aF-8.6972602899999991
aF-8.6923873799999996
aF-8.6913186099999997
aF-8.6950786099999995
aF-8.7035181500000007
aF-8.7164852699999997
aF-8.7338509900000005
aF-8.7556436000000009
aF-8.7823765599999994
aF-8.8148213000000002
aF-8.8527157200000008
aF-8.8930874499999994
aF-8.9294203900000007
aF-8.9538794300000006
aF-8.9643894399999997
aF-8.9669890599999995
aF-8.9673905400000002
aF-8.9665388000000004
aF-8.9646732700000005
aF-8.9633405699999997
aF-8.9643546799999996
aF-8.9685288599999993
aF-8.9759321599999993
aF-8.9865540199999998
aF-9.0004820500000005
aF-9.0179372299999994
aF-9.03939044
aF-9.0654940499999999
aF-9.0962702800000006
aF-9.1298024800000004
aF-9.1620285999999993
aF-9.1874169499999994
aF-9.20273875
aF-9.2109567400000003
aF-9.2161276999999995
aF-9.2196115299999999
aF-9.2215652000000006
aF-9.2226771400000001
aF-9.2247253600000008
aF-9.2292905100000002
aF-9.2370344299999996
aF-9.2481199699999994
aF-9.2626822999999998
aF-9.28106352
aF-9.3039404300000008
aF-9.3324936699999999
aF-9.3682259200000004
aF-9.4116213099999992
aF-9.4588954100000002
aF-9.4996975500000005
aF-9.5226508400000007
aF-9.5265684900000007
aF-9.5218917699999999
aF-9.5167544500000005
aF-9.5116650899999993
aF-9.5067350600000005
aF-9.5031667599999992
aF-9.50184316
aF-9.5029136199999993
aF-9.5063600499999996
aF-9.5124172300000005
aF-9.5213819100000006
aF-9.5335511900000007
aF-9.5493873499999999
aF-9.5697313600000005
aF-9.5958109100000009
aF-9.6289081799999998
aF-9.66935346
aF-9.7145894100000003
aF-9.7577808899999994
aF-9.7896212800000004
aF-9.8053168799999995
aF-9.8104195900000004
aF-9.8113541600000005
aF-9.8095106300000001
aF-9.8060216100000002
aF-9.8033146299999991
aF-9.8032353699999994
aF-9.8062607400000008
aF-9.8123831300000006
aF-9.8217233000000004
aF-9.8345439500000005
aF-9.8512698800000003
aF-9.87270015
aF-9.9000988999999997
aF-9.9348210199999993
aF-9.9771673700000001
aF-10.0243365
aF-10.0690898
aF-10.1028365
aF-10.120647
aF-10.1253508
aF-10.127106599999999
aF-10.130012900000001
aF-10.132335100000001
aF-10.133566399999999
aF-10.135318
aaa(lp104
S'Res_Flow[2]'
p105
a(lp106
F-5.6834038299999996
aF-5.1341424499999997
aF-5.1230376
aF-5.0897646999999999
aF-5.1209113799999999
aF-5.1152405999999999
aF-5.1032120499999998
aF-5.1236776600000002
aF-5.1545204199999999
aF-5.1729448199999997
aF-5.1879639600000003
aF-5.2091506699999996
aF-5.2248735799999997
aF-5.2190901099999998
aF-5.20969237
aF-5.2052874300000003
aF-5.2085912499999996
aF-5.2203036899999997
aF-5.2332777200000002
aF-5.2454548599999997
aF-5.2622321300000001
aF-5.2863821099999999
aF-5.3175237500000003
aF-5.3542575399999999
aF-5.3964474899999999
aF-5.4452676599999998
aF-5.5014917800000003
aF-5.5656046400000001
aF-5.6409853200000004
aF-5.7331765199999998
aF-5.7794271300000002
aF-5.7393856300000001
aF-5.7601582100000002
aF-5.7508318899999997
aF-5.7808482000000003
aF-5.8157623300000001
aF-5.8825754300000002
aF-5.9325706199999999
aF-5.8953385200000001
aF-5.8656214999999996
aF-5.8581625900000001
aF-5.8568224400000002
aF-5.8633093499999998
aF-5.8727601099999998
aF-5.8886011800000002
aF-5.90857338
aF-5.9313103099999998
aF-5.95401413
aF-5.9766583400000002
aF-5.9987537700000004
aF-6.0198994800000003
aF-6.0397299100000001
aF-6.0586371799999998
aF-6.0773344500000004
aF-6.0968674800000002
aF-6.1185131200000002
aF-6.1435500100000002
aF-6.1728627100000004
aF-6.2067373300000002
aF-6.2448020800000004
aF-6.2858948000000003
aF-6.3276943899999996
aF-6.3643740700000002
aF-6.3894216699999999
aF-6.4079960099999997
aF-6.4350955799999996
aF-6.4700949400000001
aF-6.51528332
aF-6.5858426200000002
aF-6.6129525200000003
aF-6.6078212399999998
aF-6.6081696000000001
aF-6.6129766400000003
aF-6.6017573299999999
aF-6.5878159500000004
aF-6.5881382000000004
aF-6.5944990199999998
aF-6.6006161299999997
aF-6.6100657099999998
aF-6.6256284699999997
aF-6.6453397900000004
aF-6.6648002000000002
aF-6.6824063799999998
aF-6.6988361599999999
aF-6.7130895199999996
aF-6.7256996200000003
aF-6.73849199
aF-6.7525838900000004
aF-6.76916969
aF-6.7891922200000003
aF-6.8125779
aF-6.8377527599999999
aF-6.8612243499999996
aF-6.8800588999999999
aF-6.8913319199999998
aF-6.8942050100000003
aF-6.8926317800000003
aF-6.8931861300000001
aF-6.9023740599999996
aF-6.9195782899999996
aF-6.9389112400000004
aF-6.9661391100000003
aF-7.0059558199999996
aF-7.0435710399999998
aF-7.0702739000000001
aF-7.0734529799999999
aF-7.0551827899999999
aF-7.0751194899999996
aF-7.2045984599999997
aF-7.2858360900000001
aF-7.2938721400000004
aF-7.2223441499999996
aF-7.1493579799999996
aF-7.1112746299999996
aF-7.1237723099999997
aF-7.1797681200000003
aF-7.2377853200000004
aF-7.2573409399999997
aF-7.23737809
aF-7.2352667100000003
aF-7.24671354
aF-7.2624076999999998
aF-7.2688237400000002
aF-7.2795715799999998
aF-7.2997021100000001
aF-7.3240769600000002
aF-7.3463523100000003
aF-7.36723514
aF-7.3869896300000004
aF-7.3985420599999996
aF-7.40490636
aF-7.4586552800000003
aF-7.4492226800000001
aF-7.4206082499999999
aF-7.4003859600000004
aF-7.3884309300000002
aF-7.3870958199999999
aF-7.3973609199999997
aF-7.4165545599999998
aF-7.4395823999999999
aF-7.4609107300000002
aF-7.4789480800000003
aF-7.4946362999999998
aF-7.5091147999999999
aF-7.5238789099999996
aF-7.5407789599999999
aF-7.5609849000000002
aF-7.5842144100000004
aF-7.6095881700000003
aF-7.6369378399999999
aF-7.6666891599999998
aF-7.6992127200000002
aF-7.7348880099999997
aF-7.7737993999999997
aF-7.8149366599999999
aF-7.8526771999999996
aF-7.8742888799999999
aF-7.8763549800000003
aF-7.8751462400000003
aF-7.87328034
aF-7.86759407
aF-7.8606621700000003
aF-7.8554050899999996
aF-7.8534889100000003
aF-7.8557368099999998
aF-7.8628613100000004
aF-7.8755788200000003
aF-7.8946409299999996
aF-7.9207567000000001
aF-7.9544205400000001
aF-7.9954886399999996
aF-8.0424290999999997
aF-8.0914668800000005
aF-8.1379860500000003
aF-8.1806519600000005
aF-8.2209253199999992
aF-8.2581619499999999
aF-8.2845200000000006
aF-8.2897013699999995
aF-8.2887830699999991
aF-8.29968343
aF-8.3147810500000006
aF-8.3276861100000001
aF-8.3424609899999993
aF-8.3623927800000004
aF-8.3896410400000008
aF-8.4260786000000003
aF-8.4720333300000004
aF-8.5125120800000005
aF-8.5316419900000007
aF-8.5321112200000009
aF-8.5177335999999997
aF-8.5110360600000003
aF-8.5190473200000003
aF-8.5310547299999993
aF-8.5422766699999997
aF-8.5542616799999998
aF-8.5672785299999994
aF-8.5779767499999995
aF-8.5834726299999993
aF-8.5878081500000008
aF-8.5952116400000005
aF-8.6069714800000003
aF-8.6232666699999996
aF-8.6445435400000008
aF-8.6711706700000004
aF-8.7020233200000003
aF-8.7342678199999995
aF-8.7642706799999992
aF-8.7890086699999994
aF-8.8064888999999997
aF-8.8164028200000004
aF-8.8209828199999993
aF-8.8229070600000004
aF-8.8237684499999993
aF-8.8239625900000007
aF-8.8217464900000007
aF-8.8173816200000008
aF-8.8149528499999992
aF-8.8168482099999999
aF-8.8234890400000001
aF-8.8347468300000003
aF-8.85085576
aF-8.8721705400000008
aF-8.8987524400000009
aF-8.9301609499999994
aF-8.9653355999999995
aF-9.0021286099999998
aF-9.0369322699999994
aF-9.0650102199999996
aF-9.0817174299999994
aF-9.0863405299999993
aF-9.0855357899999998
aF-9.0856128100000006
aF-9.0868289099999995
aF-9.0882942300000007
aF-9.0905019899999999
aF-9.0946137599999997
aF-9.1012972699999999
aF-9.1107851400000008
aF-9.1234118500000001
aF-9.1397108599999992
aF-9.1602476700000004
aF-9.1853691899999994
aF-9.2148501100000004
aF-9.24722255
aF-9.2792381099999997
aF-9.3065278300000003
aF-9.3246373800000004
aF-9.3323406700000007
aF-9.3346603500000001
aF-9.33672477
aF-9.3398073200000002
aF-9.3438524800000007
aF-9.3489009000000003
aF-9.3556701699999998
aF-9.3649059399999999
aF-9.3768405300000008
aF-9.3915524900000005
aF-9.4093207200000002
aF-9.4307190500000004
aF-9.4564700599999991
aF-9.4872163900000004
aF-9.5229734399999995
aF-9.5619684199999995
aF-9.5994957900000006
aF-9.6291234899999996
aF-9.6451745800000008
aF-9.6462924500000007
aF-9.6422398999999999
aF-9.6416521999999993
aF-9.6432702599999995
aF-9.6454434899999999
aF-9.6483778299999994
aF-9.6525049599999999
aF-9.6579710300000006
aF-9.6649081300000006
aF-9.6737837100000004
aF-9.6852513099999999
aF-9.7000390799999998
aF-9.7189255200000009
aF-9.7427301199999992
aF-9.7721142099999998
aF-9.8070973400000003
aF-9.8461537799999999
aF-9.8851794999999996
aF-9.9177685699999998
aF-9.9373782100000003
aF-9.9426061899999993
aF-9.9417504399999999
aF-9.9420462900000004
aF-9.9434734099999993
aF-9.9452746800000007
aF-9.9483372499999998
aF-9.9536282699999994
aF-9.9613447900000001
aF-9.9715261399999999
aF-9.9845027500000008
aF-10.000850099999999
aF-10.021242000000001
aF-10.0463664
aF-10.076733000000001
aF-10.1121888
aF-10.1511715
aF-10.1902013
aF-10.2246054
aF-10.249624900000001
aF-10.260188599999999
aF-10.2581224
aF-10.255777800000001
aF-10.257702
aF-10.2608511
aF-10.263822599999999
aF-10.267461300000001
aaa(lp107
S'Res_Flow[3]'
p108
a(lp109
F-4.3353703299999999
aF-4.3529349399999999
aF-4.3686623400000002
aF-4.3912011299999998
aF-4.4061320300000002
aF-4.3774451000000001
aF-4.3570063299999999
aF-4.3686545800000003
aF-4.3961948299999998
aF-4.4131269
aF-4.4306880700000004
aF-4.45753325
aF-4.4796497999999998
aF-4.47594695
aF-4.4633483600000003
aF-4.45507426
aF-4.45587248
aF-4.4670495600000004
aF-4.4805792899999997
aF-4.4913806000000003
aF-4.5039233000000003
aF-4.5213357600000004
aF-4.54331832
aF-4.5685415999999996
aF-4.59668952
aF-4.6280871899999996
aF-4.6621702599999999
aF-4.69771669
aF-4.7353317600000002
aF-4.7804633299999999
aF-4.8154489399999996
aF-4.8093586400000001
aF-4.8291176499999997
aF-4.8268865400000003
aF-4.8509426299999996
aF-4.8730999099999996
aF-4.9063314900000004
aF-4.9451889700000002
aF-4.9444090300000001
aF-4.9503552800000001
aF-4.96564402
aF-4.9808917499999996
aF-4.9990651399999999
aF-5.0176315100000002
aF-5.0388896699999997
aF-5.0610105599999997
aF-5.0833785200000001
aF-5.1050672600000002
aF-5.12697365
aF-5.1491648100000003
aF-5.17128151
aF-5.1926785100000004
aF-5.21313563
aF-5.2329088600000002
aF-5.2526885600000002
aF-5.2734200600000003
aF-5.29605762
aF-5.3212464800000001
aF-5.3491065200000003
aF-5.3791276300000002
aF-5.4104813600000004
aF-5.44201874
aF-5.4716188099999998
aF-5.4963801999999999
aF-5.5170871100000003
aF-5.5396899099999999
aF-5.5648216399999999
aF-5.5953819999999999
aF-5.6383446800000003
aF-5.6606746799999996
aF-5.6674268699999999
aF-5.6742162900000004
aF-5.6866213400000003
aF-5.69152871
aF-5.6956051900000002
aF-5.7074965899999999
aF-5.7213793600000002
aF-5.7336488900000004
aF-5.7474696300000003
aF-5.76472096
aF-5.7836137699999997
aF-5.8015711000000003
aF-5.8182802599999999
aF-5.8344372900000003
aF-5.8493548999999998
aF-5.8633604100000003
aF-5.8776380799999997
aF-5.8928600099999997
aF-5.9096077500000002
aF-5.9283383499999998
aF-5.9489355799999997
aF-5.9707516700000003
aF-5.9921612099999999
aF-6.0120223099999999
aF-6.0292550299999998
aF-6.0431706800000002
aF-6.0551180999999996
aF-6.0683134900000004
aF-6.0858849800000003
aF-6.1056445400000001
aF-6.12396399
aF-6.14599677
aF-6.1740999199999997
aF-6.1985381500000001
aF-6.2168984500000004
aF-6.2219697299999996
aF-6.2109396300000004
aF-6.2231600399999998
aF-6.3039060400000002
aF-6.3580149199999996
aF-6.3693658299999996
aF-6.3301258000000002
aF-6.2853317799999999
aF-6.2600951
aF-6.26961089
aF-6.3125980799999999
aF-6.3623246800000004
aF-6.3924384099999996
aF-6.3981794000000001
aF-6.4122518800000003
aF-6.4337122100000004
aF-6.4524741800000003
aF-6.4612233799999998
aF-6.4736523999999998
aF-6.4932647399999999
aF-6.51448904
aF-6.53232196
aF-6.5478936900000004
aF-6.5618870999999999
aF-6.5698541300000004
aF-6.5746345000000002
aF-6.61797389
aF-6.6233009300000001
aF-6.6076894399999997
aF-6.5949747399999996
aF-6.5892896299999997
aF-6.5943616699999996
aF-6.6101947499999998
aF-6.6326826900000002
aF-6.6564269200000004
aF-6.6766799600000004
aF-6.6929144100000002
aF-6.7073030200000003
aF-6.72139138
aF-6.7361869900000002
aF-6.7527659499999997
aF-6.7719407
aF-6.7935091099999996
aF-6.8167373800000002
aF-6.8413870799999996
aF-6.8673924199999998
aF-6.8945248899999996
aF-6.9225320000000004
aF-6.9513435599999998
aF-6.9810617700000002
aF-7.0104768399999999
aF-7.0344828000000001
aF-7.0486591699999996
aF-7.0582331800000002
aF-7.0636056700000003
aF-7.0644404099999996
aF-7.0637748199999999
aF-7.0643571200000004
aF-7.0679428099999999
aF-7.0753051200000003
aF-7.0866832799999999
aF-7.1020138399999997
aF-7.1210865300000004
aF-7.1438566300000002
aF-7.1704597799999998
aF-7.2010533800000003
aF-7.23534583
aF-7.2717313700000004
aF-7.3074278799999997
aF-7.3408191299999999
aF-7.37212611
aF-7.4016785399999998
aF-7.4270885199999999
aF-7.4430249899999996
aF-7.4558283799999998
aF-7.4742429699999997
aF-7.4927111399999999
aF-7.5086887400000002
aF-7.52562277
aF-7.5449197400000001
aF-7.5670386299999999
aF-7.5923683899999999
aF-7.6214107899999997
aF-7.6485776200000002
aF-7.6643275700000002
aF-7.6700345299999997
aF-7.6691241699999999
aF-7.6731197099999999
aF-7.6834767700000004
aF-7.6932093100000003
aF-7.7030676500000004
aF-7.7156622300000004
aF-7.7306396199999998
aF-7.7446932500000001
aF-7.7551684200000004
aF-7.7643771399999997
aF-7.77486123
aF-7.7873138300000004
aF-7.8017269200000001
aF-7.8183772200000003
aF-7.8376640699999998
aF-7.8592166600000004
aF-7.8817405599999999
aF-7.9034056399999999
aF-7.9227039000000001
aF-7.9386920600000002
aF-7.9512264699999999
aF-7.96144097
aF-7.9708107200000002
aF-7.9803418099999996
aF-7.9898566600000001
aF-7.9970648100000004
aF-8.0014467099999997
aF-8.0059176000000001
aF-8.0125002799999994
aF-8.0217289800000007
aF-8.0334575600000004
aF-8.0476050099999998
aF-8.0641207399999999
aF-8.0829285899999999
aF-8.1040000800000005
aF-8.12729474
aF-8.1523053099999991
aF-8.17759809
aF-8.2007456600000008
aF-8.2189554200000003
aF-8.2313520699999998
aF-8.2408499400000004
aF-8.2502963999999999
aF-8.25945866
aF-8.2678631599999992
aF-8.2761085300000001
aF-8.2851901100000003
aF-8.2956061900000009
aF-8.3074209200000002
aF-8.3206895799999998
aF-8.3355676899999995
aF-8.3522706499999995
aF-8.3710295000000006
aF-8.3919788000000004
aF-8.4147629800000008
aF-8.4381137000000006
aF-8.4600388899999999
aF-8.4780729699999995
aF-8.4910552199999998
aF-8.5012132600000001
aF-8.5110825200000004
aF-8.5212373100000001
aF-8.5315306
aF-8.5419112899999998
aF-8.5529213199999994
aF-8.5651802400000001
aF-8.5788986200000004
aF-8.5940720000000006
aF-8.6107372200000007
aF-8.6290884499999994
aF-8.6494627899999994
aF-8.6723097899999999
aF-8.6979568100000009
aF-8.7259148100000008
aF-8.7539038300000005
aF-8.7780586899999999
aF-8.7947956600000001
aF-8.8035003300000003
aF-8.8092576999999999
aF-8.8163215099999999
aF-8.8237344400000008
aF-8.8308353700000009
aF-8.8381760600000003
aF-8.8462714099999999
aF-8.8552401500000002
aF-8.8651068199999994
aF-8.8761069199999998
aF-8.8885524999999994
aF-8.9027595099999992
aF-8.9190920400000007
aF-8.93803226
aF-8.96010536
aF-8.9856077699999997
aF-9.0140485399999992
aF-9.0434418700000005
aF-9.0703155800000008
aF-9.0907690799999994
aF-9.1033341399999994
aF-9.1118964200000008
aF-9.1200424400000006
aF-9.1275843400000003
aF-9.1344007600000001
aF-9.1415603700000005
aF-9.1500403499999994
aF-9.1600698499999993
aF-9.1716167300000002
aF-9.1847611899999997
aF-9.1996890400000009
aF-9.2166574600000004
aF-9.2360506200000003
aF-9.2583479499999992
aF-9.2838426700000003
aF-9.3120866600000003
aF-9.3412945999999994
aF-9.3685134699999999
aF-9.3908472599999993
aF-9.4059064800000005
aF-9.4143738199999998
aF-9.4222691100000002
aF-9.4316972099999994
aF-9.4409399300000008
aF-9.4495784300000008
aF-9.4583910299999996
aaa(lp110
S'Res_Flow[4]'
p111
a(lp112
F0
aF0
aF0
aF0
aF0
aF0
aF0
aF0
aF0
aF0
aF0
aF0
aF0
aF0
aF0
aF0
aF0
aF0
aF0
aF0
aF0
aF0
aF0
aF0
aF0
aF0
aF0
aF0
aF0
aF0
aF0
aF0
aF0
aF0
aF0
aF0
aF0
aF0
aF0
aF0
aF0
aF0
aF0
aF0
aF0
aF0
aF0
aF0
aF0
aF0
aF0
aF0
aF0
aF0
aF0
aF0
aF0
aF0
aF0
aF0
aF0
aF0
aF0
aF0
aF0
aF0
aF0
aF0
aF0
aF0
aF0
aF0
aF0
aF0
aF0
aF0
aF0
aF0
aF0
aF0
aF0
aF0
aF0
aF0
aF0
aF0
aF0
aF0
aF0
aF0
aF0
aF0
aF0
aF0
aF0
aF0
aF0
aF0
aF0
aF0
aF0
aF0
aF0
aF0
aF0
aF0
aF0
aF0
aF0
aF0
aF0
aF0
aF0
aF0
aF0
aF0
aF0
aF0
aF0
aF0
aF0
aF0
aF0
aF0
aF0
aF0
aF0
aF0
aF0
aF0
aF0
aF0
aF0
aF0
aF0
aF0
aF0
aF0
aF0
aF0
aF0
aF0
aF0
aF0
aF0
aF0
aF0
aF0
aF0
aF0
aF0
aF0
aF0
aF0
aF0
aF0
aF0
aF0
aF0
aF0
aF0
aF0
aF0
aF0
aF0
aF0
aF0
aF0
aF0
aF0
aF0
aF0
aF0
aF0
aF0
aF0
aF0
aF0
aF0
aF0
aF0
aF0
aF0
aF0
aF0
aF0
aF0
aF0
aF0
aF0
aF0
aF0
aF0
aF0
aF0
aF0
aF0
aF0
aF0
aF0
aF0
aF0
aF0
aF0
aF0
aF0
aF0
aF0
aF0
aF0
aF0
aF0
aF0
aF0
aF0
aF0
aF0
aF0
aF0
aF0
aF0
aF0
aF0
aF0
aF0
aF0
aF0
aF0
aF0
aF0
aF0
aF0
aF0
aF0
aF0
aF0
aF0
aF0
aF0
aF0
aF0
aF0
aF0
aF0
aF0
aF0
aF0
aF0
aF0
aF0
aF0
aF0
aF0
aF0
aF0
aF0
aF0
aF0
aF0
aF0
aF0
aF0
aF0
aF0
aF0
aF0
aF0
aF0
aF0
aF0
aF0
aF0
aF0
aF0
aF0
aF0
aF0
aF0
aF0
aF0
aF0
aF0
aF0
aF0
aF0
aF0
aF0
aF0
aF0
aF0
aF0
aF0
aF0
aF0
aF0
aF0
aF0
aF0
aF0
aF0
aF0
aF0
aF0
aF0
aF0
aF0
aF0
aF0
aF0
aF0
aF0
aF0
aF0
aF0
aaa(lp113
S'Linear_Solver_Iterations'
p114
a(lp115
F2
aF2
aF2
aF2
aF2
aF2
aF2
aF2
aF2
aF2
aF2
aF2
aF2
aF2
aF2
aF2
aF2
aF2
aF2
aF2
aF2
aF2
aF2
aF2
aF2
aF2
aF2
aF2
aF2
aF2
aF2
aF2
aF2
aF2
aF2
aF2
aF2
aF2
aF2
aF2
aF2
aF2
aF2
aF2
aF2
aF2
aF2
aF2
aF2
aF2
aF2
aF2
aF2
aF2
aF2
aF2
aF2
aF2
aF2
aF2
aF2
aF2
aF2
aF2
aF2
aF2
aF2
aF2
aF2
aF2
aF2
aF2
aF2
aF2
aF2
aF2
aF2
aF2
aF2
aF2
aF2
aF2
aF2
aF2
aF2
aF2
aF2
aF2
aF2
aF2
aF2
aF2
aF2
aF2
aF2
aF2
aF2
aF2
aF2
aF2
aF2
aF2
aF2
aF2
aF2
aF2
aF2
aF2
aF2
aF2
aF2
aF2
aF2
aF2
aF2
aF2
aF2
aF2
aF2
aF2
aF2
aF2
aF2
aF2
aF2
aF2
aF2
aF2
aF2
aF2
aF2
aF2
aF2
aF2
aF2
aF2
aF2
aF2
aF2
aF2
aF2
aF2
aF2
aF2
aF2
aF2
aF2
aF2
aF2
aF2
aF2
aF2
aF2
aF2
aF2
aF2
aF2
aF2
aF2
aF2
aF2
aF2
aF2
aF2
aF2
aF2
aF2
aF2
aF2
aF2
aF2
aF2
aF2
aF2
aF2
aF2
aF2
aF2
aF2
aF2
aF2
aF2
aF2
aF2
aF2
aF2
aF2
aF2
aF2
aF2
aF2
aF2
aF2
aF2
aF2
aF2
aF2
aF2
aF2
aF2
aF2
aF2
aF2
aF2
aF2
aF2
aF2
aF2
aF2
aF2
aF2
aF2
aF2
aF2
aF2
aF2
aF2
aF2
aF2
aF2
aF2
aF2
aF2
aF2
aF2
aF2
aF2
aF2
aF2
aF2
aF2
aF2
aF2
aF2
aF2
aF2
aF2
aF2
aF2
aF2
aF2
aF2
aF2
aF2
aF2
aF2
aF2
aF2
aF2
aF2
aF2
aF2
aF2
aF2
aF2
aF2
aF2
aF2
aF2
aF2
aF2
aF2
aF2
aF2
aF2
aF2
aF2
aF2
aF2
aF2
aF2
aF2
aF2
aF2
aF2
aF2
aF2
aF2
aF2
aF2
aF2
aF2
aF2
aF2
aF2
aF2
aF2
aF2
aF2
aF2
aF2
aF2
aF2
aF2
aF2
aF2
aF2
aF2
aF2
aF2
aF2
aF2
aF2
aF2
aF2
aF2
aF2
aF2
aF2
aF2
aF2
aF2
aF2
aF2
aaa(lp116
S'CFL_Number'
p117
a(lp118
F10
aF10
aF10
aF10
aF10
aF10
aF10
aF10
aF10
aF10
aF10
aF10
aF10
aF10
aF10
aF10
aF10
aF10
aF10
aF10
aF10
aF10
aF10
aF10
aF10
aF10
aF10
aF10
aF10
aF10
aF10
aF10
aF10
aF10
aF10
aF10
aF10
aF10
aF10
aF10
aF10
aF10
aF10
aF10
aF10
aF10
aF10
aF10
aF10
aF10
aF10
aF10
aF10
aF10
aF10
aF10
aF10
aF10
aF10
aF10
aF10
aF10
aF10
aF10
aF10
aF10
aF10
aF10
aF10
aF10
aF10
aF10
aF10
aF10
aF10
aF10
aF10
aF10
aF10
aF10
aF10
aF10
aF10
aF10
aF10
aF10
aF10
aF10
aF10
aF10
aF10
aF10
aF10
aF10
aF10
aF10
aF10
aF10
aF10
aF10
aF10
aF10
aF10
aF10
aF10
aF10
aF10
aF10
aF10
aF10
aF10
aF10
aF10
aF10
aF10
aF10
aF10
aF10
aF10
aF10
aF10
aF10
aF10
aF10
aF10
aF10
aF10
aF10
aF10
aF10
aF10
aF10
aF10
aF10
aF10
aF10
aF10
aF10
aF10
aF10
aF10
aF10
aF10
aF10
aF10
aF10
aF10
aF10
aF10
aF10
aF10
aF10
aF10
aF10
aF10
aF10
aF10
aF10
aF10
aF10
aF10
aF10
aF10
aF10
aF10
aF10
aF10
aF10
aF10
aF10
aF10
aF10
aF10
aF10
aF10
aF10
aF10
aF10
aF10
aF10
aF10
aF10
aF10
aF10
aF10
aF10
aF10
aF10
aF10
aF10
aF10
aF10
aF10
aF10
aF10
aF10
aF10
aF10
aF10
aF10
aF10
aF10
aF10
aF10
aF10
aF10
aF10
aF10
aF10
aF10
aF10
aF10
aF10
aF10
aF10
aF10
aF10
aF10
aF10
aF10
aF10
aF10
aF10
aF10
aF10
aF10
aF10
aF10
aF10
aF10
aF10
aF10
aF10
aF10
aF10
aF10
aF10
aF10
aF10
aF10
aF10
aF10
aF10
aF10
aF10
aF10
aF10
aF10
aF10
aF10
aF10
aF10
aF10
aF10
aF10
aF10
aF10
aF10
aF10
aF10
aF10
aF10
aF10
aF10
aF10
aF10
aF10
aF10
aF10
aF10
aF10
aF10
aF10
aF10
aF10
aF10
aF10
aF10
aF10
aF10
aF10
aF10
aF10
aF10
aF10
aF10
aF10
aF10
aF10
aF10
aF10
aF10
aF10
aF10
aF10
aF10
aF10
aF10
aF10
aF10
aF10
aF10
aF10
aF10
aF10
aF10
aF10
aF10
aF10
aF10
aF10
aF10
aF10
aF10
aaa(lp119
S'Time(min)"\n'
p120
a(lp121
F0.00097646709999999999
aF0.0018130341999999999
aF0.0026493191999999999
aF0.0034513195000000002
aF0.0042529027
aF0.0051075021000000003
aF0.0061732690000000003
aF0.0073121825999999997
aF0.0084846695
aF0.0094691674000000007
aF0.0103609324
aF0.0113307357
aF0.012186269
aF0.0130965193
aF0.0139211178
aF0.0147855004
aF0.015650419400000001
aF0.016516816600000001
aF0.017344284099999999
aF0.0181887825
aF0.0189825336
aF0.019796435000000001
aF0.020596750600000002
aF0.021414601799999999
aF0.022244151399999999
aF0.023074583199999998
aF0.023949233699999999
aF0.024822366200000001
aF0.025616133199999998
aF0.026421332400000001
aF0.027250933599999999
aF0.028058234899999999
aF0.028866052600000001
aF0.029665652899999999
aF0.030476518500000001
aF0.031324434300000002
aF0.032175469399999997
aF0.033061750700000003
aF0.033884533199999997
aF0.034694000099999997
aF0.035500383400000002
aF0.036299200900000002
aF0.0371081511
aF0.037945783099999998
aF0.038786399399999998
aF0.0396067659
aF0.040444584700000001
aF0.041272334299999998
aF0.042096718200000001
aF0.042924817400000002
aF0.043759334099999998
aF0.044588732700000001
aF0.045398052500000001
aF0.046197501799999999
aF0.0470065832
aF0.047829417399999997
aF0.048664836099999997
aF0.049559318999999998
aF0.050522669200000002
aF0.0513756514
aF0.0521756331
aF0.052975869199999998
aF0.053786651300000002
aF0.054609219200000003
aF0.055418618500000003
aF0.056254684899999997
aF0.057098619099999998
aF0.057937884299999999
aF0.058781735100000003
aF0.059607935000000001
aF0.060481949600000001
aF0.061302534700000001
aF0.062151133999999997
aF0.062955482800000004
aF0.063769034500000002
aF0.064592651500000001
aF0.065493682999999997
aF0.066536668899999998
aF0.067403634399999995
aF0.068230068699999993
aF0.069028099400000001
aF0.069844452500000001
aF0.070650215899999994
aF0.071549336099999999
aF0.072364417700000003
aF0.073187585700000002
aF0.073991616600000004
aF0.074802335100000006
aF0.0756206195
aF0.076427467700000001
aF0.077236350400000001
aF0.078035136099999999
aF0.078845584400000002
aF0.079648518599999996
aF0.080451234199999999
aF0.0812638839
aF0.082164668999999996
aF0.083074768399999999
aF0.083880499999999997
aF0.084717802199999998
aF0.085540501300000002
aF0.086374302700000002
aF0.087246867000000006
aF0.088072335700000004
aF0.088911736000000005
aF0.089918235900000004
aF0.090943133800000006
aF0.092238950700000003
aF0.093149483199999994
aF0.094045400599999995
aF0.095036268199999996
aF0.096033100299999993
aF0.096900335899999995
aF0.097738599800000006
aF0.098609566699999998
aF0.099614934099999997
aF0.1004269004
aF0.1012621164
aF0.1020610332
aF0.1028744658
aF0.10367978410000001
aF0.10450328590000001
aF0.1053225517
aF0.10613981879999999
aF0.106944867
aF0.1077558359
aF0.10855764950000001
aF0.1093618194
aF0.1101705511
aF0.11100536580000001
aF0.111836036
aF0.1126397014
aF0.1134337505
aF0.1142534494
aF0.11511868240000001
aF0.11604766850000001
aF0.116922768
aF0.11775161820000001
aF0.1185715834
aF0.1193857829
aF0.1201873859
aF0.1209905505
aF0.12185801659999999
aF0.1226686676
aF0.1234805346
aF0.12433701749999999
aF0.12513026790000001
aF0.12594376800000001
aF0.1267724355
aF0.12758958340000001
aF0.1283989509
aF0.12920086780000001
aF0.13000698490000001
aF0.1308100502
aF0.13161543610000001
aF0.1325091004
aF0.13341713350000001
aF0.13428626860000001
aF0.13509003319999999
aF0.1358882666
aF0.13671034970000001
aF0.13751396739999999
aF0.13841148610000001
aF0.1392304858
aF0.1400261998
aF0.14083195130000001
aF0.14162695010000001
aF0.14243131880000001
aF0.14323743580000001
aF0.14408735040000001
aF0.14490776859999999
aF0.14573125040000001
aF0.14655038519999999
aF0.1473826329
aF0.14818343319999999
aF0.1491120021
aF0.1500659188
aF0.15097045100000001
aF0.15177093350000001
aF0.1526029189
aF0.1534106334
aF0.1542275826
aF0.15507820050000001
aF0.15590273539999999
aF0.15678648549999999
aF0.1577122688
aF0.15852086939999999
aF0.15932538509999999
aF0.16039783560000001
aF0.16121123230000001
aF0.16201314929999999
aF0.16281646890000001
aF0.16362435019999999
aF0.16442303259999999
aF0.1652469516
aF0.16616220079999999
aF0.1670741161
aF0.16788225170000001
aF0.16868646940000001
aF0.1694875518
aF0.17029095089999999
aF0.1711241007
aF0.17200598319999999
aF0.1728389343
aF0.17389200129999999
aF0.17500846780000001
aF0.17597845000000001
aF0.17684433460000001
aF0.17774006919999999
aF0.1786025524
aF0.17953881820000001
aF0.18039023479999999
aF0.1811961174
aF0.1820427855
aF0.18297358350000001
aF0.18380434909999999
aF0.1846040686
aF0.18544195099999999
aF0.1862720172
aF0.18707755009999999
aF0.1879116019
aF0.18874741789999999
aF0.1895733158
aF0.1904192328
aF0.19129275079999999
aF0.19208531779999999
aF0.19289768539999999
aF0.19371680020000001
aF0.19453900260000001
aF0.1953447183
aF0.19615125259999999
aF0.19698010290000001
aF0.1977903684
aF0.19861343300000001
aF0.1995302518
aF0.20037016869999999
aF0.2011953672
aF0.20200175049999999
aF0.2028098663
aF0.20361095269999999
aF0.20442306599999999
aF0.2052969694
aF0.2060969671
aF0.2068999688
aF0.20771726770000001
aF0.20851988399999999
aF0.20931468410000001
aF0.2101325671
aF0.2109435519
aF0.21175310210000001
aF0.21256548559999999
aF0.21445058580000001
aF0.2152706345
aF0.21621890069999999
aF0.21706408260000001
aF0.21789291699999999
aF0.2186881661
aF0.2195079009
aF0.22032581570000001
aF0.22112243570000001
aF0.22201443509999999
aF0.22284286819999999
aF0.22370471950000001
aF0.2245486498
aF0.22534923549999999
aF0.22618163429999999
aF0.2270154516
aF0.22783824999999999
aF0.2286381324
aF0.22943633399999999
aF0.2302705169
aF0.23107945120000001
aF0.2319359859
aF0.23296018439999999
aF0.233798484
aF0.23461575109999999
aF0.23542373580000001
aF0.23623535239999999
aF0.2370390336
aF0.2378458182
aF0.2386886517
aF0.23952268360000001
aF0.24033575060000001
aF0.24113988480000001
aF0.24193805060000001
aF0.24275530179999999
aF0.24356139900000001
aF0.24437163270000001
aF0.24517964919999999
aF0.2459902326
aF0.2467947841
aF0.24759733279999999
aF0.2484222015
aF0.24928488330000001
aF0.2501418352
aF0.2509504676
aF0.25178951820000001
aF0.25259250010000001
aF0.25343230169999997
aF0.25424293279999999
aF0.25514945189999999
aF0.2559547861
aF0.25693268380000001
aF0.25793686710000002
aF0.2589007854
aF0.259797736
aF0.26065515280000001
aF0.26152006789999999
aF0.26242349939999998
aF0.26329576570000002
aF0.2641254663
aF0.26496728260000002
aF0.26591678460000001
aF0.26680676939999998
aaatRp122
(dp123
g20
I01
sbaa(lp124
S'ADJOINT_DRAG'
p125
ag7
((lp126
(lp127
g76
a(lp128
F833
aF834
aF835
aF836
aF837
aF838
aF839
aF840
aF841
aF842
aF843
aF844
aF845
aF846
aF847
aF848
aF849
aF850
aF851
aF852
aF853
aF854
aF855
aF856
aF857
aF858
aF859
aF860
aF861
aF862
aF863
aF864
aF865
aF866
aF867
aF868
aF869
aF870
aF871
aF872
aF873
aF874
aF875
aF876
aF877
aF878
aF879
aF880
aF881
aF882
aF883
aF884
aF885
aF886
aF887
aF888
aF889
aF890
aF891
aF892
aF893
aF894
aF895
aF896
aF897
aF898
aF899
aF900
aF901
aF902
aF903
aF904
aF905
aF906
aF907
aF908
aF909
aF910
aF911
aF912
aF913
aF914
aF915
aF916
aF917
aF918
aF919
aF920
aF921
aF922
aF923
aF924
aF925
aF926
aF927
aF928
aF929
aF930
aF931
aF932
aF933
aF934
aF935
aF936
aF937
aF938
aF939
aF940
aF941
aF942
aF943
aF944
aF945
aF946
aF947
aF948
aF949
aF950
aF951
aF952
aF953
aF954
aF955
aF956
aF957
aF958
aF959
aF960
aF961
aF962
aF963
aF964
aF965
aF966
aF967
aF968
aF969
aF970
aF971
aF972
aF973
aF974
aF975
aF976
aF977
aF978
aF979
aF980
aF981
aF982
aF983
aF984
aF985
aF986
aF987
aF988
aF989
aF990
aF991
aF992
aF993
aF994
aF995
aF996
aF997
aF998
aF999
aF1000
aF1001
aF1002
aF1003
aF1004
aF1005
aF1006
aF1007
aF1008
aF1009
aF1010
aF1011
aF1012
aF1013
aF1014
aF1015
aF1016
aF1017
aF1018
aF1019
aF1020
aF1021
aF1022
aF1023
aF1024
aF1025
aF1026
aF1027
aF1028
aF1029
aF1030
aF1031
aF1032
aF1033
aF1034
aF1035
aF1036
aF1037
aF1038
aF1039
aF1040
aF1041
aF1042
aF1043
aF1044
aF1045
aF1046
aF1047
aF1048
aF1049
aF1050
aF1051
aF1052
aF1053
aF1054
aF1055
aF1056
aF1057
aF1058
aF1059
aF1060
aF1061
aF1062
aF1063
aF1064
aF1065
aF1066
aF1067
aF1068
aF1069
aF1070
aF1071
aF1072
aF1073
aF1074
aF1075
aF1076
aF1077
aF1078
aF1079
aF1080
aF1081
aF1082
aF1083
aF1084
aF1085
aF1086
aF1087
aF1088
aF1089
aF1090
aF1091
aF1092
aF1093
aF1094
aF1095
aF1096
aF1097
aF1098
aF1099
aF1100
aF1101
aF1102
aF1103
aF1104
aF1105
aF1106
aF1107
aF1108
aF1109
aF1110
aF1111
aF1112
aF1113
aF1114
aF1115
aF1116
aF1117
aF1118
aF1119
aF1120
aF1121
aF1122
aF1123
aF1124
aF1125
aF1126
aF1127
aF1128
aF1129
aF1130
aF1131
aF1132
aF1133
aF1134
aF1135
aF1136
aF1137
aF1138
aF1139
aF1140
aF1141
aF1142
aF1143
aF1144
aF1145
aF1146
aF1147
aF1148
aF1149
aF1150
aF1151
aF1152
aF1153
aF1154
aF1155
aF1156
aF1157
aF1158
aF1159
aF1160
aF1161
aF1162
aF1163
aF1164
aF1165
aF1166
aF1167
aF1168
aF1169
aF1170
aF1171
aF1172
aF1173
aF1174
aF1175
aF1176
aF1177
aF1178
aF1179
aF1180
aF1181
aF1182
aF1183
aaa(lp129
S'Sens_Geo'
p130
a(lp131
F0.018574909099999998
aF0.010892471500000001
aF0.034764060499999999
aF0.030012566399999999
aF0.023938477999999999
aF0.018715688000000001
aF0.0116647266
aF0.0060009972300000001
aF0.0018751973300000001
aF-0.0024855381899999999
aF-0.0077169748599999997
aF-0.013363175200000001
aF-0.018720781700000001
aF-0.0233660885
aF-0.027199073800000001
aF-0.030293121900000001
aF-0.0327525028
aF-0.034641993900000001
aF-0.035980770799999999
aF-0.036702662699999999
aF-0.036207597100000002
aF-0.038837092199999999
aF-0.0380770094
aF-0.037759907400000001
aF-0.037457178100000002
aF-0.037384209100000003
aF-0.037341620399999997
aF-0.037360432399999997
aF-0.037374641100000001
aF-0.0373788943
aF-0.037396737499999999
aF-0.037456269799999997
aF-0.037571121399999997
aF-0.037737441099999998
aF-0.037944531599999998
aF-0.038183432900000001
aF-0.038449732600000001
aF-0.038741334299999999
aF-0.0390563523
aF-0.039393166200000003
aF-0.039751959400000002
aF-0.040135015099999997
aF-0.040529485499999997
aF-0.040899155999999999
aF-0.041339309300000002
aF-0.041847198199999998
aF-0.042377429799999998
aF-0.0428946064
aF-0.043385839400000001
aF-0.043838813300000001
aF-0.044242305500000002
aF-0.0445849304
aF-0.044854569699999999
aF-0.0450379037
aF-0.045106202999999997
aF-0.045120996500000003
aF-0.045260340400000001
aF-0.045024392699999999
aF-0.0448671556
aF-0.044664149100000002
aF-0.044472485899999997
aF-0.044277910400000002
aF-0.044095435699999998
aF-0.043925354399999998
aF-0.043777134099999997
aF-0.043659177100000002
aF-0.043577605700000001
aF-0.043534791500000003
aF-0.043530368700000002
aF-0.043562465699999997
aF-0.043628505400000003
aF-0.043725294300000002
aF-0.043847777499999997
aF-0.043981372400000003
aF-0.044130912799999998
aF-0.044309133799999997
aF-0.0445000178
aF-0.044692903300000003
aF-0.044884028499999999
aF-0.045069574199999997
aF-0.045245657000000002
aF-0.045408875899999999
aF-0.0455558244
aF-0.045683531200000002
aF-0.0457895091
aF-0.045871800999999997
aF-0.0459279098
aF-0.045945885300000003
aF-0.046009900300000003
aF-0.045985550799999997
aF-0.045946355899999999
aF-0.045903459799999997
aF-0.045849355100000003
aF-0.045786981599999999
aF-0.045717029100000001
aF-0.045641055600000001
aF-0.045561915100000003
aF-0.045483711599999997
aF-0.0454102308
aF-0.0453443189
aF-0.0452878897
aF-0.0452423479
aF-0.045209369300000003
aF-0.045195814199999997
aF-0.045172132099999998
aF-0.0451695394
aF-0.045185693700000001
aF-0.045209738399999998
aF-0.045241888199999997
aF-0.0452801075
aF-0.045322886100000001
aF-0.045368394800000003
aF-0.045414973300000001
aF-0.045460746900000001
aF-0.045503859100000002
aF-0.045542682799999998
aF-0.045575922300000002
aF-0.0456026114
aF-0.0456220793
aF-0.045633909700000003
aF-0.045637813200000002
aF-0.045632258799999999
aF-0.045622663299999998
aF-0.045616068099999997
aF-0.045587610200000003
aF-0.045561560500000001
aF-0.0455315315
aF-0.045501029700000001
aF-0.045470026500000003
aF-0.045439791700000003
aF-0.0454110374
aF-0.045384756599999999
aF-0.045361825100000003
aF-0.045342938399999998
aF-0.045328527600000001
aF-0.045318856599999999
aF-0.0453144163
aF-0.045318885599999997
aF-0.045304351800000003
aF-0.045321743599999999
aF-0.045330429700000001
aF-0.045343906400000002
aF-0.045357722000000003
aF-0.045372862100000001
aF-0.045388138699999997
aF-0.045403376699999998
aF-0.045417935299999997
aF-0.045431171899999997
aF-0.045442553300000001
aF-0.045451729400000002
aF-0.045458499499999999
aF-0.045462762900000002
aF-0.045464473700000001
aF-0.045463549899999997
aF-0.045459108200000001
aF-0.045458037899999998
aF-0.045449780299999999
aF-0.0454411157
aF-0.045431340700000003
aF-0.045421180899999997
aF-0.045410761600000002
aF-0.045400518899999999
aF-0.0453907245
aF-0.045381688599999997
aF-0.045373710499999997
aF-0.0453670371
aF-0.045361836099999997
aF-0.045358208900000002
aF-0.045356240700000001
aF-0.0453563035
aF-0.045356583200000002
aF-0.045356811499999997
aF-0.045361937800000002
aF-0.045366311499999999
aF-0.045371681599999998
aF-0.045377319800000003
aF-0.045383252499999999
aF-0.045389196100000001
aF-0.045395000400000003
aF-0.045400437600000003
aF-0.045405300799999999
aF-0.045409428000000002
aF-0.045412712100000002
aF-0.045415087600000001
aF-0.045416513899999997
aF-0.0454169377
aF-0.045415979000000002
aF-0.045416279599999998
aF-0.0454137846
aF-0.045411007900000001
aF-0.045407705999999999
aF-0.045404117100000002
aF-0.045400296700000002
aF-0.0453964065
aF-0.045392558899999998
aF-0.045388881499999999
aF-0.045385503000000001
aF-0.045382534400000001
aF-0.0453800574
aF-0.045378127099999999
aF-0.0453767775
aF-0.045376033900000001
aF-0.045375963999999998
aF-0.0453769095
aF-0.045375918799999998
aF-0.045378341099999997
aF-0.045379955499999999
aF-0.045382087799999998
aF-0.0453842484
aF-0.045386546200000003
aF-0.045388833500000003
aF-0.045391076799999999
aF-0.045393193399999997
aF-0.0453951046
aF-0.045396744599999997
aF-0.045398070800000002
aF-0.045399058300000003
aF-0.045399692399999997
aF-0.045399950299999998
aF-0.045399660799999998
aF-0.045400028799999999
aF-0.0453990612
aF-0.045398154900000001
aF-0.045397013999999999
aF-0.045395781500000003
aF-0.0453944545
aF-0.045393099800000003
aF-0.045391752799999997
aF-0.045390461600000001
aF-0.045389275
aF-0.045388234600000001
aF-0.045387370400000002
aF-0.045386702199999997
aF-0.045386241899999999
aF-0.045385997900000002
aF-0.045385990299999998
aF-0.045386349999999999
aF-0.045386070600000002
aF-0.045386909500000003
aF-0.045387517099999997
aF-0.0453882969
aF-0.045389093599999999
aF-0.045389935300000003
aF-0.045390770900000002
aF-0.045391585399999997
aF-0.045392349899999997
aF-0.045393036900000003
aF-0.045393623399999999
aF-0.045394094199999999
aF-0.045394440500000001
aF-0.045394657200000001
aF-0.045394736999999998
aF-0.045394626299999997
aF-0.045394715799999999
aF-0.045394373000000002
aF-0.045394018299999998
aF-0.045393591599999998
aF-0.045393130300000001
aF-0.045392637899999998
aF-0.045392136200000002
aF-0.045391638900000003
aF-0.045391163399999997
aF-0.045390727200000001
aF-0.045390345499999998
aF-0.0453900291
aF-0.045389785000000002
aF-0.045389617399999999
aF-0.045389529499999998
aF-0.045389530300000001
aF-0.045389646300000003
aF-0.0453895588
aF-0.045389862500000003
aF-0.045390084599999998
aF-0.045390367399999999
aF-0.045390656699999997
aF-0.045390962200000003
aF-0.0453912655
aF-0.0453915612
aF-0.045391838400000002
aF-0.0453920872
aF-0.0453922992
aF-0.045392469099999999
aF-0.045392593799999999
aF-0.045392671400000001
aF-0.045392699500000001
aF-0.045392658400000001
aF-0.045392688799999997
aF-0.045392563800000001
aF-0.045392434699999998
aF-0.045392279100000002
aF-0.045392110999999999
aF-0.045391931599999998
aF-0.045391748699999998
aF-0.045391567600000002
aF-0.045391394299999999
aF-0.045391235199999998
aF-0.045391095899999997
aF-0.045390980099999999
aF-0.045390890599999997
aF-0.045390828699999997
aF-0.0453907957
aF-0.0453907952
aF-0.045390833999999998
aF-0.045390802299999998
aF-0.045390911300000003
aF-0.045390990499999999
aF-0.045391091600000003
aF-0.045391195099999997
aF-0.045391304600000001
aF-0.045391413300000003
aF-0.045391519499999998
aF-0.045391619000000001
aF-0.045391708400000001
aF-0.0453917847
aF-0.045391845799999997
aF-0.045391890599999998
aF-0.045391918500000003
aF-0.0453919287
aF-0.045391913999999998
aF-0.045391924799999997
aF-0.0453918803
aF-0.045391833999999999
aF-0.045391778200000003
aF-0.045391717900000003
aF-0.045391653499999997
aF-0.045391587900000002
aF-0.045391523000000003
aF-0.045391460799999998
aF-0.045391403900000002
aF-0.045391354000000002
aF-0.045391312599999997
aF-0.0453912806
aF-0.045391258599999998
aF-0.045391246900000001
aF-0.045391247000000003
aF-0.045391261099999997
aF-0.0453912499
aF-0.045391289299999998
aF-0.045391318
aF-0.045391354500000002
aF-0.0453913918
aF-0.0453914313
aF-0.045391470400000002
aF-0.045391508699999999
aF-0.045391544499999999
aF-0.045391576599999997
aF-0.045391604000000002
aF-0.045391625999999997
aF-0.045391642000000003
aF-0.045391651999999998
aF-0.045391655599999997
aaa(lp132
S'Sens_Mach'
p133
a(lp134
F0.091310136900000005
aF0.091130600899999997
aF0.089836751100000001
aF0.087938369899999994
aF0.086972650100000007
aF0.085787434900000001
aF0.084449832799999999
aF0.082913917899999995
aF0.081149073599999996
aF0.079264416500000004
aF0.077295126500000005
aF0.075254534499999998
aF0.0731638914
aF0.071056389100000006
aF0.068971987900000004
aF0.066953896799999996
aF0.065043298799999996
aF0.0632749747
aF0.061674037399999999
aF0.0602498848
aF0.058932408399999997
aF0.057762186
aF0.056884830800000001
aF0.056200847499999998
aF0.055643633400000003
aF0.055139006499999997
aF0.054708953099999999
aF0.0543805292
aF0.054129305000000003
aF0.053932491700000001
aF0.053786098400000003
aF0.0536899328
aF0.053642791699999998
aF0.0536422732
aF0.0536847071
aF0.053765196799999998
aF0.053877367000000002
aF0.054013226300000002
aF0.054163409900000001
aF0.054317668700000002
aF0.054465392600000002
aF0.054597276799999997
aF0.054722735000000002
aF0.054844995600000002
aF0.054917294200000001
aF0.054939289299999999
aF0.054929122300000001
aF0.054885829999999997
aF0.0548110349
aF0.0547101012
aF0.054589469699999997
aF0.054455809799999998
aF0.054315604500000003
aF0.054174808300000002
aF0.054037065500000002
aF0.053891919199999999
aF0.053773013199999997
aF0.053689357
aF0.053623091999999997
aF0.053572107000000001
aF0.053536806499999999
aF0.053523584700000001
aF0.053533321199999997
aF0.0535615734
aF0.053605115100000003
aF0.053662025199999998
aF0.0537300052
aF0.053806306599999999
aF0.053888067800000002
aF0.053972453099999998
aF0.054056783900000002
aF0.054138888699999999
aF0.0542189223
aF0.054298253900000003
aF0.054363374399999997
aF0.054412042299999998
aF0.054451205099999997
aF0.054480131399999999
aF0.054497789400000003
aF0.0545040574
aF0.054499563299999998
aF0.054485431799999998
aF0.0544629051
aF0.0544333449
aF0.054398208500000003
aF0.054358982600000001
aF0.054317020600000002
aF0.054272248100000003
aF0.054224701600000001
aF0.054186851799999998
aF0.054154807300000003
aF0.054123489900000002
aF0.054094700400000001
aF0.054071248799999999
aF0.054054720200000003
aF0.054044630900000001
aF0.054040388600000003
aF0.054041916199999998
aF0.054049072500000003
aF0.0540613754
aF0.054078100300000001
aF0.0540983877
aF0.054121306000000001
aF0.054146267900000003
aF0.054173519199999999
aF0.054198859199999998
aF0.054221987899999997
aF0.054243316999999999
aF0.054262402000000001
aF0.054278736500000001
aF0.054291519099999998
aF0.0543005243
aF0.054305838000000002
aF0.054307549099999998
aF0.0543058306
aF0.0543009952
aF0.054293473699999997
aF0.054283779999999997
aF0.054272481599999998
aF0.054260176200000003
aF0.054247465699999997
aF0.054234816399999997
aF0.054221037
aF0.054209896799999997
aF0.054201680199999998
aF0.054194580700000002
aF0.054189306600000001
aF0.054186036399999998
aF0.054185081699999998
aF0.054186480099999997
aF0.054189966399999998
aF0.054195274199999997
aF0.054202158899999998
aF0.054210326400000002
aF0.054219439000000001
aF0.054229144899999998
aF0.054239123799999997
aF0.054249550700000003
aF0.054259237500000002
aF0.054267276400000002
aF0.054274677600000001
aF0.054280845199999997
aF0.054286217300000002
aF0.054290250599999999
aF0.054292730300000001
aF0.054293876400000003
aF0.054293812599999998
aF0.054292603600000003
aF0.0542903754
aF0.054287298599999999
aF0.054283564499999999
aF0.0542793741
aF0.054274930200000002
aF0.054270423900000003
aF0.054265841199999998
aF0.054261359100000003
aF0.054257832200000002
aF0.054254914299999998
aF0.0542525456
aF0.054250770699999999
aF0.054249708200000003
aF0.054249429600000003
aF0.054249871900000003
aF0.054250953099999999
aF0.054252600499999998
aF0.054254726599999997
aF0.054257227599999999
aF0.054259991299999998
aF0.054262905899999998
aF0.054265891300000001
aF0.054269094400000002
aF0.054271737100000002
aF0.054273904499999998
aF0.054275906999999998
aF0.054277563799999998
aF0.054278860399999997
aF0.054279689999999998
aF0.054280036300000001
aF0.054279950399999999
aF0.054279467999999997
aF0.054278620999999999
aF0.054277457600000002
aF0.054276038200000001
aF0.054274429800000003
aF0.054272701999999999
aF0.054270922499999999
aF0.054269111799999999
aF0.054267301900000002
aF0.054265806399999998
aF0.054264529499999999
aF0.0542634476
aF0.054262572299999999
aF0.054261958700000001
aF0.054261643900000003
aF0.054261611299999998
aF0.054261837299999997
aF0.054262301300000003
aF0.054262975800000002
aF0.0542638259
aF0.054264811500000003
aF0.054265890400000003
aF0.054267019700000002
aF0.054268162100000003
aF0.0542693837
aF0.054270450099999999
aF0.054271283199999999
aF0.054272050000000002
aF0.054272666800000001
aF0.0542731641
aF0.054273491399999998
aF0.054273624499999999
aF0.054273588300000002
aF0.054273402200000001
aF0.0542730778
aF0.054272632799999998
aF0.054272090100000003
aF0.054271475200000002
aF0.054270814200000003
aF0.054270132300000003
aF0.054269435099999999
aF0.0542687476
aF0.0542681764
aF0.054267678299999997
aF0.054267255
aF0.0542669042
aF0.054266650700000002
aF0.054266508999999997
aF0.054266470800000001
aF0.054266527500000002
aF0.0542666724
aF0.054266895699999998
aF0.054267184400000001
aF0.054267523900000003
aF0.0542678984
aF0.054268292199999998
aF0.054268691000000001
aF0.0542691124
aF0.054269488999999997
aF0.054269785000000001
aF0.054270051999999999
aF0.054270264399999997
aF0.054270432600000001
aF0.054270539999999999
aF0.054270578200000003
aF0.054270555499999998
aF0.054270478699999999
aF0.054270352500000001
aF0.054270183600000001
aF0.054269980299999999
aF0.054269752099999999
aF0.054269508299999998
aF0.054269258100000002
aF0.0542690043
aF0.054268752199999999
aF0.054268545199999997
aF0.054268367300000002
aF0.0542682154
aF0.054268090999999997
aF0.054268002400000001
aF0.054267954700000003
aF0.054267944899999997
aF0.054267969800000003
aF0.054268026800000001
aF0.054268112200000003
aF0.054268221200000001
aF0.054268348399999999
aF0.054268488199999999
aF0.054268634699999999
aF0.0542687829
aF0.054268941399999999
aF0.054269078300000002
aF0.054269186300000001
aF0.0542692855
aF0.054269364399999999
aF0.054269426799999999
aF0.054269466799999999
aF0.054269481799999998
aF0.054269474599999999
aF0.054269447700000001
aF0.054269402799999998
aF0.054269342499999998
aF0.054269269699999997
aF0.0542691878
aF0.054269100299999998
aF0.054269010399999998
aF0.054268919300000003
aF0.054268828900000003
aF0.054268754600000003
aF0.0542686909
aF0.054268636699999998
aF0.054268592400000003
aF0.054268561100000001
aF0.054268544600000003
aF0.0542685418
aF0.054268551599999999
aF0.054268573000000001
aF0.054268604599999999
aF0.054268644800000002
aF0.054268691500000001
aF0.054268742699999997
aF0.054268796399999999
aF0.054268850600000001
aF0.054268908800000001
aF0.054268958700000001
aF0.0542689981
aF0.0542690345
aF0.0542690636
aF0.054269086600000002
aF0.054269101600000001
aF0.054269107499999997
aF0.054269105400000003
aF0.054269096099999997
aF0.054269080400000003
aF0.054269059000000001
aF0.054269033100000003
aF0.054269003900000001
aF0.0542689726
aF0.054268940500000001
aF0.054268907900000003
aF0.054268875500000001
aF0.0542688489
aF0.054268826100000001
aF0.054268806599999997
aF0.054268790800000001
aF0.054268779599999997
aF0.054268773700000002
aF0.054268772799999997
aF0.054268776400000003
aF0.054268784100000002
aF0.054268795500000001
aF0.054268810000000001
aF0.054268826800000003
aF0.054268845199999999
aF0.0542688645
aF0.054268884000000003
aF0.054268904899999998
aF0.054268922800000001
aF0.054268936900000002
aF0.054268949900000002
aF0.054268960300000002
aF0.0542689685
aF0.054268973800000002
aF0.054268975800000001
aF0.054268974999999997
aF0.054268971499999999
aF0.054268965799999999
aF0.054268957999999999
aF0.054268948599999998
aF0.054268938000000003
aF0.054268926699999998
aF0.054268915100000002
aaa(lp135
S'Sens_AoA'
p136
a(lp137
F0.0040827447399999998
aF0.0040850180000000002
aF0.0040950219399999996
aF0.0041033583200000001
aF0.0040834569399999998
aF0.0040294261400000003
aF0.0039517661200000002
aF0.0038734415699999999
aF0.0038085368300000001
aF0.0037570711600000001
aF0.00371215131
aF0.0036669170700000002
aF0.0036178838199999999
aF0.0035645766299999999
aF0.0035080977799999999
aF0.0034501230100000002
aF0.0033924186000000001
aF0.0033365925199999999
aF0.00328397169
aF0.00323559108
aF0.0031926085000000002
aF0.0031552818000000001
aF0.0031233855800000001
aF0.0030975038600000002
aF0.0030776743199999999
aF0.0030639960100000002
aF0.00305590571
aF0.0030523841
aF0.00305266097
aF0.0030561732000000002
aF0.00306234048
aF0.0030704859899999999
aF0.0030798687899999998
aF0.0030897651399999998
aF0.00309952221
aF0.0031085782299999998
aF0.00311647208
aF0.0031228471100000002
aF0.0031274489299999999
aF0.00313011949
aF0.0031307904899999998
aF0.0031294639200000001
aF0.0031260681499999999
aF0.00312057067
aF0.0031134857400000001
aF0.0031054150500000001
aF0.0030966286199999998
aF0.0030872082799999999
aF0.00307726806
aF0.00306710307
aF0.0030570654299999999
aF0.0030474524100000001
aF0.0030384964700000002
aF0.00303038349
aF0.0030232659000000001
aF0.0030173386200000002
aF0.0030125794899999998
aF0.0030088879099999999
aF0.0030063191500000002
aF0.0030048457100000001
aF0.0030044107900000002
aF0.0030048655399999998
aF0.0030060280299999999
aF0.00300773535
aF0.0030098338100000002
aF0.00301216941
aF0.0030145889000000002
aF0.0030169473299999998
aF0.0030191155600000001
aF0.0030209843499999999
aF0.0030224655
aF0.0030234900799999999
aF0.0030239935599999999
aF0.0030239185300000001
aF0.00302334342
aF0.0030224081700000001
aF0.0030211484699999998
aF0.0030195427500000001
aF0.0030175937800000002
aF0.00301538765
aF0.0030130460499999999
aF0.0030106779100000001
aF0.0030083727200000002
aF0.00300620731
aF0.0030042494100000002
aF0.0030025568799999999
aF0.00300117642
aF0.0030001493899999999
aF0.0029995082999999998
aF0.0029992211400000001
aF0.00299927109
aF0.0029996614800000001
aF0.0030003788
aF0.00300138925
aF0.0030026278200000001
aF0.0030040321500000001
aF0.0030055508700000001
aF0.00300713407
aF0.0030087285899999998
aF0.0030102804899999999
aF0.0030117393099999999
aF0.0030130609299999999
aF0.00301420908
aF0.0030151533599999999
aF0.0030158671300000001
aF0.0030163553000000002
aF0.0030166285699999998
aF0.0030166886400000001
aF0.0030165374099999998
aF0.0030161892199999998
aF0.0030156768700000001
aF0.0030150361000000001
aF0.0030142996399999998
aF0.0030134989699999999
aF0.0030126658899999998
aF0.0030118322700000001
aF0.00301102871
aF0.0030102831400000002
aF0.0030096197800000002
aF0.0030090585
aF0.0030086142999999998
aF0.00300829798
aF0.0030081256899999998
aF0.00300808614
aF0.0030081564400000001
aF0.00300833597
aF0.00300862142
aF0.00300900595
aF0.00300946723
aF0.0030099791500000001
aF0.0030105199700000002
aF0.00301107093
aF0.0030116142300000001
aF0.0030121328499999999
aF0.0030126112799999999
aF0.0030130362400000001
aF0.00301339693
aF0.0030136820799999998
aF0.0030138907799999999
aF0.0030140304899999998
aF0.0030140948900000001
aF0.0030140870199999998
aF0.0030140077300000001
aF0.0030138693500000001
aF0.0030136857599999999
aF0.0030134679499999998
aF0.00301322599
aF0.0030129703300000002
aF0.0030127118200000001
aF0.0030124611000000002
aF0.0030122279199999999
aF0.0030120206900000001
aF0.0030118462600000001
aF0.0030117098999999999
aF0.0030116165699999998
aF0.00301156877
aF0.0030115611099999998
aF0.0030115911000000001
aF0.00301165744
aF0.0030117591899999998
aF0.00301189144
aF0.00301204611
aF0.0030122153900000001
aF0.00301239245
aF0.0030125709099999998
aF0.0030127446000000001
aF0.00301290775
aF0.0030130552200000001
aF0.00301318268
aF0.0030132865300000001
aF0.0030133626900000002
aF0.0030134126400000001
aF0.0030134386600000002
aF0.0030134392999999998
aF0.0030134146700000002
aF0.0030133660600000002
aF0.0030132981300000001
aF0.0030132156999999999
aF0.0030131227200000002
aF0.0030130229399999999
aF0.00301292023
aF0.0030128184899999998
aF0.0030127214199999999
aF0.0030126323600000002
aF0.00301255415
aF0.0030124890699999999
aF0.0030124391599999998
aF0.0030124058099999999
aF0.00301238787
aF0.0030123848899999998
aF0.0030123965799999999
aF0.0030124226800000002
aF0.0030124615400000001
aF0.0030125104399999999
aF0.0030125667200000001
aF0.00301262797
aF0.0030126918199999998
aF0.0030127558900000001
aF0.0030128179099999999
aF0.0030128757599999999
aF0.00301292762
aF0.0030129719499999998
aF0.0030130075700000002
aF0.0030130329199999999
aF0.0030130483299999999
aF0.0030130553099999998
aF0.0030130531399999998
aF0.0030130419700000002
aF0.00301302193
aF0.0030129946700000001
aF0.0030129621900000002
aF0.0030129260700000001
aF0.0030128876600000001
aF0.0030128483400000002
aF0.0030128095200000001
aF0.00301277253
aF0.0030127385899999999
aF0.00301270872
aF0.0030126837699999999
aF0.0030126644799999998
aF0.0030126512500000002
aF0.0030126436700000001
aF0.0030126417100000001
aF0.00301264522
aF0.0030126540800000001
aF0.0030126676099999999
aF0.0030126848000000001
aF0.0030127047199999999
aF0.00301272651
aF0.0030127493299999999
aF0.0030127723
aF0.0030127945899999999
aF0.0030128154199999999
aF0.0030128341300000002
aF0.0030128501599999999
aF0.0030128630599999999
aF0.0030128723300000002
aF0.0030128780000000001
aF0.0030128805699999998
aF0.00301287986
aF0.00301287595
aF0.0030128688800000001
aF0.0030128592200000001
aF0.0030128476699999998
aF0.0030128347900000001
aF0.0030128210899999998
aF0.0030128070699999999
aF0.0030127932300000001
aF0.0030127800499999999
aF0.00301276796
aF0.00301275734
aF0.0030127484799999998
aF0.0030127416399999998
aF0.0030127370000000001
aF0.0030127343900000002
aF0.00301273377
aF0.0030127351099999999
aF0.00301273835
aF0.0030127432800000002
aF0.0030127495299999999
aF0.0030127567500000002
aF0.0030127646399999999
aF0.0030127728799999999
aF0.0030127811700000002
aF0.0030127892100000001
aF0.0030127967100000001
aF0.0030128034300000001
aF0.0030128091900000001
aF0.0030128138099999998
aF0.0030128171000000001
aF0.0030128191099999999
aF0.0030128200200000002
aF0.0030128197599999999
aF0.0030128183399999999
aF0.0030128157699999998
aF0.0030128122799999999
aF0.0030128081100000001
aF0.0030128034799999999
aF0.0030127985600000001
aF0.0030127935300000002
aF0.0030127885700000001
aF0.0030127838499999999
aF0.0030127795400000002
aF0.0030127757600000001
aF0.0030127726200000001
aF0.0030127702100000001
aF0.0030127685900000001
aF0.0030127677100000002
aF0.0030127675499999999
aF0.0030127680899999999
aF0.0030127693199999998
aF0.0030127711499999999
aF0.0030127734500000002
aF0.0030127761
aF0.0030127789900000002
aF0.0030127819999999999
aF0.0030127850199999999
aF0.00301278795
aF0.0030127906699999999
aF0.0030127931200000001
aF0.0030127952
aF0.0030127968799999998
aF0.0030127980699999998
aF0.0030127988
aF0.0030127991299999999
aF0.0030127990399999999
aF0.0030127985200000002
aF0.00301279759
aF0.0030127963299999999
aF0.0030127948199999998
aF0.00301279315
aF0.0030127913700000002
aF0.0030127895500000001
aF0.0030127877599999998
aF0.0030127860500000002
aF0.0030127844999999999
aF0.0030127831300000001
aF0.0030127819999999999
aF0.0030127811299999999
aF0.0030127805400000001
aF0.00301278023
aF0.0030127801699999998
aF0.0030127803599999999
aF0.0030127807999999999
aF0.0030127814599999999
aF0.00301278229
aF0.0030127832500000001
aF0.0030127842899999998
aF0.0030127853699999999
aF0.0030127864599999998
aF0.00301278751
aF0.0030127884999999999
aF0.0030127893799999999
aF0.0030127901299999999
aF0.0030127907300000001
aF0.0030127911600000001
aF0.00301279142
aF0.0030127915399999999
aF0.0030127915000000001
aF0.0030127913199999999
aF0.00301279098
aF0.00301279053
aF0.00301278999
aF0.0030127893899999998
aF0.0030127887499999998
aF0.0030127880899999998
aF0.0030127874500000002
aF0.00301278684
aF0.0030127862800000001
aF0.0030127857899999999
aF0.0030127853900000002
aaa(lp138
S'Sens_Press'
p139
a(lp140
F0.0029428440199999999
aF0.0029175325300000001
aF0.0017742150699999999
aF-8.7420535699999998e-05
aF-0.00058768361700000001
aF-0.00073448037700000004
aF-0.00062444560700000002
aF-0.00040653961600000001
aF-0.00018761196399999999
aF9.2572599300000001e-05
aF0.00042338700499999998
aF0.00076305242499999999
aF0.0010757553599999999
aF0.00134074825
aF0.00154624524
aF0.0016873346300000001
aF0.0017656464199999999
aF0.00178938258
aF0.00177189367
aF0.0017249989199999999
aF0.00158865836
aF0.00140791746
aF0.00135943419
aF0.0014187842799999999
aF0.00152808718
aF0.00160436319
aF0.00166271635
aF0.00174369283
aF0.00183290025
aF0.00190600965
aF0.0019553303900000001
aF0.0019791073499999998
aF0.0019764952000000001
aF0.00194789524
aF0.0018956215899999999
aF0.0018242065299999999
aF0.00173982467
aF0.0016493486499999999
aF0.0015594939400000001
aF0.00147611371
aF0.0014035472000000001
aF0.0013452480899999999
aF0.00132177692
aF0.00134907597
aF0.0013797870099999999
aF0.00140183764
aF0.00143393829
aF0.00147508943
aF0.00152068189
aF0.0015672693499999999
aF0.0016123863299999999
aF0.00165414123
aF0.0016909848
aF0.0017217726100000001
aF0.00174417151
aF0.0017415063099999999
aF0.00174172185
aF0.0017589775000000001
aF0.0017748284100000001
aF0.00178137739
aF0.0017766235999999999
aF0.0017678032099999999
aF0.0017589669200000001
aF0.0017483240600000001
aF0.0017348583400000001
aF0.0017193019800000001
aF0.0017024295500000001
aF0.00168469145
aF0.0016664768499999999
aF0.0016482173000000001
aF0.0016304498400000001
aF0.00161409557
aF0.0016023837
aF0.0016002904900000001
aF0.0015959292999999999
aF0.00158495317
aF0.0015763554499999999
aF0.00157219901
aF0.00157188535
aF0.0015743461200000001
aF0.00157884027
aF0.0015849550899999999
aF0.0015922092100000001
aF0.0016001461799999999
aF0.0016084118
aF0.0016167109199999999
aF0.00162463585
aF0.00163033307
aF0.0016313322800000001
aF0.00163894471
aF0.0016509730400000001
aF0.00165914735
aF0.0016625612200000001
aF0.0016632634900000001
aF0.00166308237
aF0.0016617657200000001
aF0.00165880563
aF0.0016544181699999999
aF0.0016490514299999999
aF0.0016430030999999999
aF0.00163646635
aF0.00162962738
aF0.0016227048400000001
aF0.00161633218
aF0.00161222851
aF0.00160745822
aF0.00160196091
aF0.00159728586
aF0.0015940904300000001
aF0.0015926142500000001
aF0.00159237127
aF0.0015931636600000001
aF0.0015949742700000001
aF0.00159763961
aF0.0016009257900000001
aF0.00160462792
aF0.0016085819500000001
aF0.0016126491999999999
aF0.0016167050699999999
aF0.0016206360200000001
aF0.0016243381700000001
aF0.0016276051000000001
aF0.0016284422199999999
aF0.0016298219499999999
aF0.0016325308200000001
aF0.0016341424900000001
aF0.0016347105499999999
aF0.00163426884
aF0.00163320733
aF0.0016317901200000001
aF0.0016300174
aF0.00162792703
aF0.0016256376899999999
aF0.0016232598400000001
aF0.00162087904
aF0.00161857363
aF0.0016164498100000001
aF0.001615116
aF0.0016139103099999999
aF0.0016119426999999999
aF0.0016104452600000001
aF0.0016091911600000001
aF0.0016088683800000001
aF0.0016090608999999999
aF0.0016094331699999999
aF0.0016100838500000001
aF0.0016110247800000001
aF0.0016121559199999999
aF0.0016133994600000001
aF0.00161470693
aF0.00161603996
aF0.0016173623100000001
aF0.00161863739
aF0.00161982264
aF0.00162067621
aF0.0016210832
aF0.0016218195300000001
aF0.0016225474100000001
aF0.00162299189
aF0.00162306569
aF0.0016228616599999999
aF0.0016225087800000001
aF0.00162202312
aF0.00162141048
aF0.0016207064100000001
aF0.00161994849
aF0.0016191662600000001
aF0.00161838483
aF0.001617631
aF0.0016169623600000001
aF0.0016166909599999999
aF0.0016161754199999999
aF0.0016154285600000001
aF0.00161492971
aF0.0016146366900000001
aF0.0016145808500000001
aF0.001614657
aF0.00161481573
aF0.0016150721800000001
aF0.0016154183600000001
aF0.00161582717
aF0.0016162770099999999
aF0.00161675247
aF0.0016172395500000001
aF0.00161772379
aF0.00161818822
aF0.00161856913
aF0.00161879439
aF0.00161912763
aF0.0016194708899999999
aF0.00161971838
aF0.0016198215099999999
aF0.00161981298
aF0.0016197418600000001
aF0.0016196127499999999
aF0.00161942664
aF0.00161919655
aF0.00161893646
aF0.00161865724
aF0.00161836794
aF0.0016180773
aF0.00161779451
aF0.0016175335200000001
aF0.00161741568
aF0.0016172749
aF0.0016170084199999999
aF0.0016168238700000001
aF0.00161669176
aF0.0016166649700000001
aF0.0016167014799999999
aF0.0016167617699999999
aF0.0016168537599999999
aF0.0016169801499999999
aF0.0016171304200000001
aF0.0016172953
aF0.00161746869
aF0.0016176455300000001
aF0.00161782062
aF0.0016179875200000001
aF0.0016181205199999999
aF0.0016182059899999999
aF0.0016183345999999999
aF0.0016184591600000001
aF0.0016185512
aF0.00161858648
aF0.00161858123
aF0.00161855491
aF0.0016185070599999999
aF0.0016184376600000001
aF0.00161835215
aF0.0016182559099999999
aF0.0016181529099999999
aF0.0016180464399999999
aF0.0016179396399999999
aF0.0016178357799999999
aF0.0016177393500000001
aF0.00161768783
aF0.0016176382000000001
aF0.0016175501599999999
aF0.0016174872
aF0.00161744177
aF0.0016174327
aF0.0016174466299999999
aF0.0016174698100000001
aF0.0016175042700000001
aF0.00161755068
aF0.0016176055
aF0.0016176655000000001
aF0.00161772846
aF0.0016177925199999999
aF0.00161785577
aF0.0016179159299999999
aF0.0016179645999999999
aF0.0016179930500000001
aF0.0016180385699999999
aF0.00161808522
aF0.0016181181900000001
aF0.0016181309
aF0.00161812884
aF0.0016181189600000001
aF0.0016181014599999999
aF0.0016180762899999999
aF0.0016180453100000001
aF0.0016180104700000001
aF0.00161797321
aF0.00161793473
aF0.00161789616
aF0.00161785871
aF0.0016178242699999999
aF0.00161780888
aF0.0016177893300000001
aF0.00161775507
aF0.00161773231
aF0.0016177162900000001
aF0.0016177132500000001
aF0.0016177182899999999
aF0.00161772674
aF0.0016177393399999999
aF0.0016177562199999999
aF0.00161777606
aF0.0016177977299999999
aF0.00161782044
aF0.0016178435299999999
aF0.0016178663299999999
aF0.00161788802
aF0.00161790554
aF0.00161791579
aF0.00161793208
aF0.0016179486999999999
aF0.0016179604199999999
aF0.0016179648699999999
aF0.0016179640200000001
aF0.00161796036
aF0.0016179539699999999
aF0.00161794484
aF0.0016179336300000001
aF0.0016179210400000001
aF0.0016179075900000001
aF0.0016178937
aF0.0016178798000000001
aF0.0016178663199999999
aF0.0016178539700000001
aF0.0016178487600000001
aF0.0016178415199999999
aF0.0016178289299999999
aF0.0016178206899999999
aF0.0016178149500000001
aF0.00161781388
aF0.0016178156999999999
aF0.0016178187500000001
aF0.0016178233100000001
aF0.0016178294199999999
aF0.0016178365899999999
aF0.0016178444100000001
aF0.0016178526100000001
aF0.00161786093
aF0.0016178691600000001
aF0.0016178769800000001
aF0.0016178833099999999
aF0.0016178870200000001
aF0.00161789284
aF0.00161789877
aF0.0016179029499999999
aF0.0016179045299999999
aF0.0016179042099999999
aF0.0016179028600000001
aF0.00161790054
aF0.00161789723
aF0.00161789318
aF0.0016178886299999999
aF0.00161788377
aF0.0016178787599999999
aF0.00161787375
aF0.0016178689
aF0.00161786445
aF0.0016178625900000001
aF0.0016178599900000001
aF0.00161785546
aF0.0016178525000000001
aF0.00161785045
aF0.00161785008
aF0.00161785074
aF0.0016178518500000001
aF0.0016178535
aF0.0016178557000000001
aF0.0016178582899999999
aF0.0016178611
aF0.0016178640499999999
aF0.0016178670500000001
aF0.0016178700099999999
aF0.00161787282
aaa(lp141
S'Sens_Temp'
p142
a(lp143
F0.076507441900000001
aF0.076279442500000003
aF0.074795080999999999
aF0.072791809900000004
aF0.072198581999999997
aF0.071634452200000004
aF0.071095657699999995
aF0.070401134200000007
aF0.069400426400000007
aF0.068159499999999998
aF0.066711823099999998
aF0.065097774999999997
aF0.063371097900000006
aF0.061589403000000001
aF0.059807755400000003
aF0.0580782548
aF0.056446442700000002
aF0.054947947699999999
aF0.053606120299999997
aF0.052425768800000001
aF0.051317117799999999
aF0.050323726100000001
aF0.049620030099999997
aF0.049085372299999999
aF0.048641321600000002
aF0.048201993499999998
aF0.047799205499999997
aF0.047472541899999998
aF0.047199944000000001
aF0.046960938200000003
aF0.0467574251
aF0.046595729099999997
aF0.046480521800000001
aF0.0464142772
aF0.046397084300000002
aF0.046426757800000003
aF0.046498626699999997
aF0.046605427200000001
aF0.046737630400000001
aF0.046884072499999999
aF0.047032643399999997
aF0.0471723561
aF0.047314275199999999
aF0.047461646599999997
aF0.047557476100000003
aF0.0476005917
aF0.047612096200000002
aF0.047590078600000002
aF0.047535523099999998
aF0.047453723400000002
aF0.047351153600000001
aF0.047234486200000002
aF0.047110105899999997
aF0.046983725400000002
aF0.046858290099999998
aF0.046719865999999999
aF0.046607618000000003
aF0.046531266199999997
aF0.046468483599999999
aF0.046416182600000001
aF0.046374760299999998
aF0.0463522502
aF0.046350355099999997
aF0.0463645632
aF0.0463919863
aF0.046431468300000001
aF0.046481512199999998
aF0.046540100299999998
aF0.0466050202
aF0.046673982699999998
aF0.046744752700000003
aF0.046815549099999999
aF0.046887211800000002
aF0.046961870599999997
aF0.047023583299999998
aF0.047069850099999998
aF0.047109091200000001
aF0.047140318700000003
aF0.047162006200000002
aF0.047173600699999998
aF0.047175393500000003
aF0.047168244900000003
aF0.047153134300000003
aF0.047131165900000001
aF0.047103550199999997
aF0.047071534700000001
aF0.047036219499999997
aF0.046997019799999998
aF0.046953496800000001
aF0.0469202622
aF0.046892281000000001
aF0.046863173399999999
aF0.046834932000000003
aF0.046810887199999998
aF0.046792984099999997
aF0.0467807191
aF0.046773493300000003
aF0.046771386700000001
aF0.0467744706
aF0.046782458399999997
aF0.046794802599999998
aF0.0468108068
aF0.046829688500000001
aF0.046851066300000001
aF0.0468755405
aF0.046898321200000002
aF0.046919280000000001
aF0.0469390945
aF0.046957365100000002
aF0.046973559800000002
aF0.046986736000000001
aF0.046996599899999998
aF0.047003195800000001
aF0.047006536100000003
aF0.047006698999999999
aF0.0470039015
aF0.046998481699999997
aF0.0469908645
aF0.046981533899999997
aF0.046971011399999998
aF0.046959832700000002
aF0.046948388200000003
aF0.046935100200000003
aF0.046924379600000003
aF0.046916476200000001
aF0.046909155199999997
aF0.046903237200000003
aF0.046898948900000001
aF0.046896713600000001
aF0.046896647100000001
aF0.046898515500000001
aF0.046902096400000003
aF0.046907206799999997
aF0.046913614700000002
aF0.046921039599999999
aF0.046929182200000003
aF0.046937774100000003
aF0.046947129099999999
aF0.046955915299999998
aF0.046963107800000001
aF0.046969978500000002
aF0.046975847600000002
aF0.046981254299999997
aF0.0469855359
aF0.046988408099999997
aF0.046990099200000003
aF0.046990711800000001
aF0.0469902668
aF0.046988849700000002
aF0.046986594299999997
aF0.046983657900000003
aF0.046980211199999997
aF0.046976430399999998
aF0.046972483400000001
aF0.046968300300000002
aF0.046964047199999998
aF0.046960720099999999
aF0.046957877000000002
aF0.046955432399999997
aF0.046953438600000001
aF0.046952050400000001
aF0.046951374300000001
aF0.046951360499999997
aF0.046951940900000003
aF0.046953062599999998
aF0.0469546588
aF0.046956645499999998
aF0.046958928699999999
aF0.046961413100000002
aF0.046964039200000002
aF0.046967016200000003
aF0.046969435099999998
aF0.046971420899999998
aF0.0469733622
aF0.0469750507
aF0.046976468899999999
aF0.046977482000000001
aF0.046978059500000002
aF0.046978249100000001
aF0.046978076200000003
aF0.046977558699999998
aF0.046976730899999999
aF0.046975640700000001
aF0.046974343299999999
aF0.046972897999999999
aF0.046971363299999999
aF0.046969743100000003
aF0.0469680575
aF0.046966670299999999
aF0.046965454699999999
aF0.0469643753
aF0.0469634435
aF0.0469627273
aF0.046962277099999998
aF0.0469620808
aF0.046962119699999999
aF0.046962380800000002
aF0.0469628448
aF0.046963484299999997
aF0.046964266499999997
aF0.046965155799999998
aF0.046966115400000001
aF0.046967113999999997
aF0.046968242600000001
aF0.046969230200000003
aF0.046969990000000003
aF0.046970729099999997
aF0.046971350299999999
aF0.046971890699999998
aF0.046972286699999997
aF0.046972505300000002
aF0.046972570800000002
aF0.046972500100000002
aF0.0469722994
aF0.0469719813
aF0.046971563899999999
aF0.046971068300000002
aF0.046970516599999998
aF0.046969930399999998
aF0.046969308600000002
aF0.046968674299999999
aF0.046968150700000003
aF0.046967681400000003
aF0.046967265899999999
aF0.0469669001
aF0.046966614800000001
aF0.046966429099999998
aF0.046966336099999999
aF0.0469663289
aF0.046966403800000001
aF0.046966553899999999
aF0.046966769200000001
aF0.046967037699999999
aF0.046967346100000001
aF0.046967680800000002
aF0.046968029500000001
aF0.046968417800000002
aF0.046968768500000001
aF0.046969041400000001
aF0.046969300399999997
aF0.046969516199999999
aF0.046969701500000002
aF0.046969835199999997
aF0.046969905700000002
aF0.046969920900000003
aF0.046969886799999999
aF0.046969806099999997
aF0.046969683700000001
aF0.046969526300000002
aF0.046969341599999999
aF0.046969137500000001
aF0.046968922000000003
aF0.0469686957
aF0.046968462199999998
aF0.046968272200000001
aF0.046968104699999999
aF0.046967954999999999
aF0.046967824700000001
aF0.0469677238
aF0.046967659299999999
aF0.046967628900000002
aF0.046967629900000002
aF0.046967660600000002
aF0.046967718700000001
aF0.046967800300000001
aF0.046967901100000001
aF0.046968016199999997
aF0.0469681406
aF0.046968270200000002
aF0.046968416800000003
aF0.0469685434
aF0.046968642200000001
aF0.0469687383
aF0.046968818199999998
aF0.0469688864
aF0.046968935699999999
aF0.046968962000000003
aF0.046968968399999998
aF0.046968956800000003
aF0.046968928299999997
aF0.046968884599999997
aF0.046968828300000001
aF0.046968761999999997
aF0.046968688699999997
aF0.046968611399999999
aF0.046968530000000001
aF0.046968446300000001
aF0.046968377999999998
aF0.046968317900000001
aF0.0469682643
aF0.046968217800000003
aF0.046968181900000003
aF0.046968159299999999
aF0.046968148899999999
aF0.046968149899999999
aF0.046968161699999997
aF0.046968183400000002
aF0.046968213500000001
aF0.046968250599999997
aF0.046968292799999999
aF0.046968338399999997
aF0.046968385799999998
aF0.046968439600000002
aF0.046968485599999998
aF0.0469685216
aF0.046968556699999997
aF0.046968586
aF0.046968611100000002
aF0.046968629300000002
aF0.046968639200000002
aF0.046968641899999997
aF0.046968638100000001
aF0.046968628200000001
aF0.046968612799999997
aF0.0469685928
aF0.046968569100000003
aF0.046968543000000001
aF0.046968515299999999
aF0.046968486199999999
aF0.046968456200000001
aF0.0469684317
aF0.046968410199999998
aF0.046968390999999998
aF0.046968374299999997
aF0.0469683615
aF0.046968353400000003
aF0.046968349700000002
aF0.0469683501
aF0.046968354400000002
aF0.046968362200000002
aF0.046968373100000002
aF0.046968386399999999
aF0.046968401600000001
aF0.046968417999999998
aF0.046968435099999997
aF0.046968454399999998
aF0.046968470900000003
aF0.046968483800000002
aF0.046968496399999997
aF0.046968506899999998
aF0.0469685159
aF0.046968522300000003
aF0.046968525800000001
aF0.046968526699999999
aF0.046968525300000001
aF0.0469685216
aF0.046968516000000002
aF0.046968508700000001
aF0.046968500199999999
aF0.046968490699999997
aF0.046968480700000002
aaa(lp144
S'Sens_AoS'
p145
a(lp146
F0
aF0
aF0
aF0
aF0
aF0
aF0
aF0
aF0
aF0
aF0
aF0
aF0
aF0
aF0
aF0
aF0
aF0
aF0
aF0
aF0
aF0
aF0
aF0
aF0
aF0
aF0
aF0
aF0
aF0
aF0
aF0
aF0
aF0
aF0
aF0
aF0
aF0
aF0
aF0
aF0
aF0
aF0
aF0
aF0
aF0
aF0
aF0
aF0
aF0
aF0
aF0
aF0
aF0
aF0
aF0
aF0
aF0
aF0
aF0
aF0
aF0
aF0
aF0
aF0
aF0
aF0
aF0
aF0
aF0
aF0
aF0
aF0
aF0
aF0
aF0
aF0
aF0
aF0
aF0
aF0
aF0
aF0
aF0
aF0
aF0
aF0
aF0
aF0
aF0
aF0
aF0
aF0
aF0
aF0
aF0
aF0
aF0
aF0
aF0
aF0
aF0
aF0
aF0
aF0
aF0
aF0
aF0
aF0
aF0
aF0
aF0
aF0
aF0
aF0
aF0
aF0
aF0
aF0
aF0
aF0
aF0
aF0
aF0
aF0
aF0
aF0
aF0
aF0
aF0
aF0
aF0
aF0
aF0
aF0
aF0
aF0
aF0
aF0
aF0
aF0
aF0
aF0
aF0
aF0
aF0
aF0
aF0
aF0
aF0
aF0
aF0
aF0
aF0
aF0
aF0
aF0
aF0
aF0
aF0
aF0
aF0
aF0
aF0
aF0
aF0
aF0
aF0
aF0
aF0
aF0
aF0
aF0
aF0
aF0
aF0
aF0
aF0
aF0
aF0
aF0
aF0
aF0
aF0
aF0
aF0
aF0
aF0
aF0
aF0
aF0
aF0
aF0
aF0
aF0
aF0
aF0
aF0
aF0
aF0
aF0
aF0
aF0
aF0
aF0
aF0
aF0
aF0
aF0
aF0
aF0
aF0
aF0
aF0
aF0
aF0
aF0
aF0
aF0
aF0
aF0
aF0
aF0
aF0
aF0
aF0
aF0
aF0
aF0
aF0
aF0
aF0
aF0
aF0
aF0
aF0
aF0
aF0
aF0
aF0
aF0
aF0
aF0
aF0
aF0
aF0
aF0
aF0
aF0
aF0
aF0
aF0
aF0
aF0
aF0
aF0
aF0
aF0
aF0
aF0
aF0
aF0
aF0
aF0
aF0
aF0
aF0
aF0
aF0
aF0
aF0
aF0
aF0
aF0
aF0
aF0
aF0
aF0
aF0
aF0
aF0
aF0
aF0
aF0
aF0
aF0
aF0
aF0
aF0
aF0
aF0
aF0
aF0
aF0
aF0
aF0
aF0
aF0
aF0
aF0
aF0
aF0
aF0
aF0
aF0
aF0
aF0
aF0
aF0
aF0
aF0
aF0
aF0
aF0
aF0
aF0
aF0
aF0
aF0
aF0
aF0
aF0
aF0
aF0
aF0
aF0
aF0
aF0
aF0
aF0
aF0
aF0
aF0
aF0
aF0
aF0
aF0
aF0
aF0
aF0
aF0
aF0
aF0
aF0
aF0
aF0
aF0
aF0
aF0
aF0
aF0
aaa(lp147
S'Res_AdjFlow[0]'
p148
a(lp149
F-5.2824358199999999
aF-5.0738493099999999
aF-4.9958661299999996
aF-4.9359755400000003
aF-4.9011331900000004
aF-4.8519262699999999
aF-4.8302644600000004
aF-4.8279933100000001
aF-4.8379549199999996
aF-4.8546998700000001
aF-4.8764603600000003
aF-4.9013337200000002
aF-4.9240974700000004
aF-4.9429830099999998
aF-4.9606953000000003
aF-4.9794357400000004
aF-4.9995578099999998
aF-5.0213681799999996
aF-5.04572573
aF-5.0733438099999999
aF-5.1043182299999996
aF-5.1367008099999998
aF-5.1641708299999998
aF-5.1925752699999999
aF-5.2175302600000002
aF-5.2386288399999996
aF-5.2559843600000002
aF-5.2690408800000004
aF-5.2792759
aF-5.2887521
aF-5.2990023800000001
aF-5.3114787300000001
aF-5.3274819100000004
aF-5.3478082200000001
aF-5.3727652399999997
aF-5.4023421899999997
aF-5.4362586799999999
aF-5.4738653199999998
aF-5.5139776999999999
aF-5.5547353399999997
aF-5.5936133799999999
aF-5.6277756800000001
aF-5.6548388699999999
aF-5.6729887100000003
aF-5.6828095799999998
aF-5.68992305
aF-5.6956810500000001
aF-5.7013414600000001
aF-5.7086926299999998
aF-5.7190480800000003
aF-5.7331235500000002
aF-5.75125712
aF-5.7732778600000003
aF-5.7985002100000003
aF-5.8257690499999999
aF-5.8536013000000002
aF-5.8776275099999999
aF-5.8970774300000004
aF-5.9130001999999999
aF-5.9233005800000003
aF-5.9288545700000004
aF-5.9314985800000004
aF-5.9333112000000003
aF-5.9363841400000004
aF-5.9421034400000003
aF-5.9514303499999999
aF-5.9651603800000004
aF-5.9837280799999997
aF-6.0071760799999998
aF-6.0352431299999996
aF-6.0673995400000003
aF-6.1027792099999996
aF-6.1400556100000001
aF-6.1768908299999996
aF-6.2084136699999997
aF-6.2360350799999997
aF-6.2591347300000004
aF-6.2765994699999998
aF-6.2894275100000003
aF-6.2991065099999997
aF-6.30779348
aF-6.3175511699999998
aF-6.32962223
aF-6.3446324299999999
aF-6.3626625499999996
aF-6.3832229500000004
aF-6.40531658
aF-6.4276684800000004
aF-6.4491477899999996
aF-6.46095825
aF-6.4734733499999999
aF-6.4820569600000004
aF-6.4875322100000004
aF-6.4913547600000001
aF-6.4948825299999999
aF-6.4998832200000001
aF-6.5076917700000001
aF-6.5190435200000003
aF-6.5345425400000003
aF-6.55449781
aF-6.5786726599999996
aF-6.6062691400000002
aF-6.6359172800000001
aF-6.6656639000000002
aF-6.6931135099999999
aF-6.7127234199999997
aF-6.72692435
aF-6.7337271599999999
aF-6.7341696200000003
aF-6.7305685100000003
aF-6.7258233199999999
aF-6.7223657799999996
aF-6.7220305400000004
aF-6.7260352499999998
aF-6.73516271
aF-6.7498614799999999
aF-6.7702572099999996
aF-6.7961377299999999
aF-6.8268924799999997
aF-6.8613579400000004
aF-6.8976024200000001
aF-6.9328125700000003
aF-6.9636612600000003
aF-6.9828663100000004
aF-6.9960306900000004
aF-6.9997177700000002
aF-6.99678004
aF-6.9905897100000001
aF-6.98471201
aF-6.9818014000000002
aF-6.9836220100000004
aF-6.9910099700000004
aF-7.0043341200000002
aF-7.0236604600000003
aF-7.0486113799999996
aF-7.0782912099999997
aF-7.11119112
aF-7.1450782799999999
aF-7.1760764899999998
aF-7.1998272600000002
aF-7.2173246000000004
aF-7.2265274000000002
aF-7.2274069599999997
aF-7.2241637799999996
aF-7.2197685500000004
aF-7.2172507899999996
aF-7.2185027699999997
aF-7.2247117999999997
aF-7.2366399599999998
aF-7.2546551299999997
aF-7.2786655900000001
aF-7.3081544799999998
aF-7.3420693799999999
aF-7.3786036399999997
aF-7.4150057
aF-7.4471798600000003
aF-7.4689769999999998
aF-7.4837376500000001
aF-7.4885759800000002
aF-7.4858558400000001
aF-7.4796884400000003
aF-7.4737474700000002
aF-7.4710075800000002
aF-7.4731805400000004
aF-7.4811133999999999
aF-7.4951994600000003
aF-7.5153949899999999
aF-7.5411418899999996
aF-7.5712890699999997
aF-7.6039573300000001
aF-7.6364141500000002
aF-7.6615024199999997
aF-7.6827806900000004
aF-7.6944927099999996
aF-7.6970829500000004
aF-7.6927025599999999
aF-7.6854579899999997
aF-7.6788804900000001
aF-7.6755656300000004
aF-7.6769579200000004
aF-7.6839708099999999
aF-7.6971233899999998
aF-7.7164862300000001
aF-7.7416855699999996
aF-7.7718768899999997
aF-7.8055771099999998
aF-7.8404477100000003
aF-7.8730245500000002
aF-7.8965263800000001
aF-7.91368838
aF-7.9206774700000002
aF-7.9188801599999996
aF-7.9120425799999996
aF-7.9040096799999997
aF-7.8980724599999999
aF-7.8962737900000004
aF-7.8997585499999996
aF-7.9091880699999999
aF-7.9248100700000004
aF-7.9464406600000004
aF-7.9734536499999997
aF-8.0046838999999999
aF-8.0382458099999994
aF-8.0714205099999994
aF-8.0985750400000001
aF-8.1188436199999998
aF-8.1307170400000004
aF-8.1338927299999995
aF-8.1298952399999997
aF-8.1231188499999991
aF-8.1168172900000002
aF-8.1137981999999997
aF-8.1155480099999995
aF-8.1228880599999993
aF-8.1363092100000003
aF-8.1558768100000005
aF-8.1811739400000008
aF-8.2112811499999996
aF-8.2446366900000001
aF-8.2788484699999998
aF-8.3104151500000008
aF-8.3327308599999999
aF-8.3487906499999998
aF-8.3550913100000006
aF-8.3530262400000002
aF-8.3464737699999993
aF-8.3390316500000008
aF-8.3338374900000005
aF-8.3328181499999996
aF-8.3370824100000007
aF-8.3473007300000006
aF-8.3637456700000001
aF-8.3862599600000003
aF-8.4142466500000008
aF-8.4465611900000006
aF-8.4813050499999996
aF-8.5156764799999998
aF-8.5444547400000008
aF-8.5652071799999998
aF-8.5773006299999999
aF-8.5800689899999991
aF-8.5753252500000006
aF-8.5676082099999995
aF-8.5603494100000006
aF-8.5564282800000004
aF-8.5573769899999999
aF-8.5640211399999995
aF-8.5768290199999999
aF-8.5958611699999992
aF-8.6207187899999997
aF-8.6505214800000001
aF-8.6837696100000006
aF-8.7181572299999992
aF-8.7503295699999999
aF-8.7732274700000001
aF-8.7905799099999999
aF-8.7981130400000005
aF-8.7971661799999996
aF-8.7913633299999994
aF-8.7843336500000007
aF-8.7793193699999996
aF-8.7783396099999997
aF-8.7825448999999995
aF-8.7926356999999999
aF-8.8089008199999999
aF-8.8311830600000008
aF-8.8588729199999996
aF-8.8908119600000006
aF-8.9250989000000001
aF-8.9589528600000001
aF-8.9863098099999998
aF-9.0072623400000005
aF-9.0191185899999997
aF-9.0219222899999991
aF-9.0174069299999999
aF-9.0100265999999998
aF-9.0031868900000003
aF-8.9996821100000002
aF-9.0010040700000005
aF-9.0079905599999996
aF-9.0211115199999998
aF-9.0404154600000002
aF-9.0654856000000006
aF-9.0954210700000004
aF-9.1286916599999994
aF-9.1629518700000006
aF-9.1948110700000001
aF-9.2172474199999996
aF-9.23398757
aF-9.2409358499999996
aF-9.23953983
aF-9.2334679600000005
aF-9.2263329400000007
aF-9.2213275299999999
aF-9.2204272199999995
aF-9.2247488600000001
aF-9.2349658300000002
aF-9.2513432200000008
aF-9.2737021199999994
aF-9.3014092999999995
aF-9.3332791200000003
aF-9.3673840300000002
aF-9.4009301399999998
aF-9.4275893699999997
aF-9.4482897700000006
aF-9.4597819699999999
aF-9.46243123
aF-9.4579583899999999
aF-9.4507721500000006
aF-9.4442315299999997
aF-9.4410623400000002
aF-9.4427223900000001
aF-9.4500437599999998
aF-9.4634939399999993
aF-9.4831174300000001
aF-9.5084916199999991
aF-9.5387057300000002
aF-9.5722103999999995
aF-9.6066280499999994
aF-9.6385333899999992
aF-9.6609392500000002
aF-9.67745678
aF-9.6841139399999996
aF-9.6824288599999999
aF-9.6761295500000006
aF-9.6688560599999995
aF-9.6637853200000006
aF-9.6628751699999995
aF-9.6672287699999995
aF-9.6775070200000002
aF-9.6939664699999994
aF-9.7164243199999998
aF-9.7442458500000004
aF-9.7762440999999995
aF-9.8104885500000005
aF-9.8441787900000008
aF-9.8709793799999996
aF-9.8918009399999995
aF-9.9033710199999998
aF-9.9060487599999991
aF-9.90157825
aF-9.8943785999999996
aF-9.8878210499999994
aF-9.8846404099999994
aF-9.8862941400000004
aF-9.8936112000000005
aF-9.9070560400000005
aF-9.9266693900000007
aF-9.9520251799999997
aF-9.9822106099999992
aF-10.015677999999999
aaa(lp150
S'Res_AdjFlow[1]'
p151
a(lp152
F-5.0587801199999998
aF-4.99257258
aF-4.9254468300000003
aF-4.8650579399999998
aF-4.8120988799999997
aF-4.7326493200000002
aF-4.6777232
aF-4.64551436
aF-4.6262071599999999
aF-4.6158581999999999
aF-4.6130882399999997
aF-4.6166065999999999
aF-4.6240541799999999
aF-4.63403484
aF-4.64643535
aF-4.6614116499999998
aF-4.6790258400000004
aF-4.6993972399999997
aF-4.7227499100000001
aF-4.7493338100000004
aF-4.7793546500000001
aF-4.8118330199999999
aF-4.8438004100000001
aF-4.8792872799999998
aF-4.9138774999999999
aF-4.9488029899999999
aF-4.9830671600000001
aF-5.0144923700000001
aF-5.0423460000000002
aF-5.067215
aF-5.0899119500000003
aF-5.1114762100000002
aF-5.1333558200000002
aF-5.1569688100000004
aF-5.1833382300000004
aF-5.2130883600000004
aF-5.2465097399999996
aF-5.2835154700000002
aF-5.3235219899999997
aF-5.36532213
aF-5.4070241299999999
aF-5.4461949799999996
aF-5.4804268399999998
aF-5.5075959900000004
aF-5.5254761400000003
aF-5.53845002
aF-5.5474657799999996
aF-5.5542245499999998
aF-5.5611494500000003
aF-5.5700719699999999
aF-5.5821782200000003
aF-5.5980462500000003
aF-5.6176901600000004
aF-5.6406734199999997
aF-5.6661421900000004
aF-5.6929494099999998
aF-5.71685292
aF-5.7370410300000003
aF-5.7543065999999996
aF-5.7660613200000004
aF-5.7726954700000004
aF-5.77511522
aF-5.7750581700000003
aF-5.7746852400000002
aF-5.7756444299999998
aF-5.7791304800000001
aF-5.7861925100000002
aF-5.7975977099999998
aF-5.8137386500000003
aF-5.8347242000000001
aF-5.8604861799999997
aF-5.8907873300000002
aF-5.9251702000000002
aF-5.9625218599999998
aF-5.9985809899999998
aF-6.03336205
aF-6.0660319300000003
aF-6.0945657899999999
aF-6.1185930800000001
aF-6.1376030899999998
aF-6.1526107400000001
aF-6.16539415
aF-6.1774476099999998
aF-6.1899923000000001
aF-6.2039081100000004
aF-6.2195936100000004
aF-6.2369841900000003
aF-6.2557365899999997
aF-6.2755199399999997
aF-6.2886349800000003
aF-6.3045697299999999
aF-6.3185252399999996
aF-6.3307622400000003
aF-6.3418252500000003
aF-6.3515533199999998
aF-6.3610443300000004
aF-6.3715302899999999
aF-6.3837562700000001
aF-6.3983435000000002
aF-6.4157915399999998
aF-6.4361871099999997
aF-6.4590978000000003
aF-6.4836290600000002
aF-6.5085093699999996
aF-6.5322049499999997
aF-6.5495825600000002
aF-6.5639820100000001
aF-6.5726301200000004
aF-6.57652999
aF-6.5770447299999999
aF-6.5758173900000001
aF-6.5747220100000003
aF-6.57540879
aF-6.5791282600000001
aF-6.5867818099999997
aF-6.5989909899999999
aF-6.6161133200000002
aF-6.6382256899999996
aF-6.6651055299999999
aF-6.6961606199999997
aF-6.7302872599999999
aF-6.7657308499999997
aF-6.80024038
aF-6.82693437
aF-6.8486344399999997
aF-6.8613288900000002
aF-6.8655197799999996
aF-6.8641100499999999
aF-6.8598501000000001
aF-6.8557561900000001
aF-6.8542607100000001
aF-6.8566988999999996
aF-6.8638476800000001
aF-6.8761563700000004
aF-6.8936780799999999
aF-6.9160300399999999
aF-6.9423975999999996
aF-6.9714926899999998
aF-7.0004906699999996
aF-7.0261194400000004
aF-7.0492557900000001
aF-7.0661038999999999
aF-7.0763057800000002
aF-7.0809777
aF-7.0820233999999997
aF-7.0820216299999998
aF-7.0832078999999997
aF-7.08729546
aF-7.0955324500000003
aF-7.1088090700000004
aF-7.1275649599999999
aF-7.15181953
aF-7.1811908500000001
aF-7.2147894199999998
aF-7.2510339500000001
aF-7.2871389400000002
aF-7.3163237099999998
aF-7.3409722500000001
aF-7.3554344199999999
aF-7.3607636000000003
aF-7.3594512200000004
aF-7.3547266599999999
aF-7.3502540300000003
aF-7.3485865600000002
aF-7.35125077
aF-7.3591974000000002
aF-7.3729095600000001
aF-7.3923734699999999
aF-7.4170797000000004
aF-7.4459832199999996
aF-7.4773518699999997
aF-7.5048955399999997
aF-7.5319490299999998
aF-7.55170852
aF-7.5630570500000003
aF-7.5663336299999999
aF-7.5634210099999999
aF-7.5577933499999999
aF-7.5526494900000003
aF-7.5501241700000001
aF-7.5517477800000004
aF-7.55858498
aF-7.5712076399999999
aF-7.5897180200000003
aF-7.6138196300000001
aF-7.6427824400000004
aF-7.6752909999999996
aF-7.7090767400000004
aF-7.7377279100000003
aF-7.7634434800000003
aF-7.78008845
aF-7.7875694099999997
aF-7.7873237900000003
aF-7.7821067800000003
aF-7.7755568400000001
aF-7.7705243900000003
aF-7.7688940100000003
aF-7.7719295400000004
aF-7.7804065400000004
aF-7.79462513
aF-7.8144671399999996
aF-7.8394258700000004
aF-7.8685320799999996
aF-7.9002301099999999
aF-7.9301123200000001
aF-7.9568269799999998
aF-7.9784905300000002
aF-7.9919678799999998
aF-7.9977866400000002
aF-7.9975491099999996
aF-7.99407991
aF-7.9906265899999998
aF-7.9893866300000003
aF-7.9918605600000001
aF-7.9991134500000003
aF-8.0117695500000004
aF-8.0299523300000004
aF-8.0533351199999998
aF-8.0811446399999998
aF-8.1120478699999996
aF-8.1437361300000006
aF-8.1702340699999993
aF-8.1941128899999995
aF-8.2096338099999997
aF-8.2170023800000003
aF-8.2176322499999994
aF-8.2139552800000004
aF-8.2092328600000002
aF-8.2060542900000009
aF-8.2061955900000001
aF-8.2108933799999999
aF-8.2209459900000006
aF-8.2366897600000009
aF-8.2580400300000001
aF-8.2845101700000008
aF-8.3151175800000008
aF-8.3482313999999995
aF-8.3798387099999996
aF-8.4070325599999993
aF-8.4287163799999991
aF-8.4412043400000005
aF-8.4453062400000007
aF-8.4430343499999996
aF-8.4375249799999992
aF-8.4322072400000003
aF-8.4293769399999992
aF-8.4305373199999991
aF-8.4367102599999999
aF-8.4484811700000009
aF-8.4659648300000008
aF-8.4888589499999991
aF-8.5164462600000004
aF-8.5474857199999992
aF-8.5798666400000005
aF-8.6072887300000005
aF-8.6329328899999993
aF-8.6504401299999998
aF-8.6597923600000009
aF-8.6620547400000003
aF-8.6594108799999994
aF-8.6551994299999997
aF-8.6521448700000008
aF-8.6521196400000004
aF-8.6564489299999998
aF-8.6659985200000005
aF-8.6811435499999998
aF-8.7018167300000009
aF-8.7275430499999995
aF-8.7573614000000006
aF-8.7896840600000008
aF-8.8196551200000002
aF-8.8468606399999992
aF-8.8681944099999992
aF-8.8809751699999993
aF-8.8857989600000007
aF-8.88434174
aF-8.8797131799999995
aF-8.8752039299999996
aF-8.8730328299999996
aF-8.8747212900000001
aF-8.8813203299999994
aF-8.8934283000000001
aF-8.9111641699999993
aF-8.9342280200000008
aF-8.9618974100000006
aF-8.9929157899999996
aF-9.0251503500000005
aF-9.0522760600000005
aF-9.0774369400000001
aF-9.0943796199999998
aF-9.1031723099999997
aF-9.1049741100000006
aF-9.1020154499999997
aF-9.0976213000000001
aF-9.0944784300000006
aF-9.0944200800000008
aF-9.0987358300000007
aF-9.1082596200000001
aF-9.1233393700000001
aF-9.1438833899999992
aF-9.1693937400000003
aF-9.1988904900000001
aF-9.2307777000000009
aF-9.2599247600000005
aF-9.2867857600000008
aF-9.3076539799999995
aF-9.3203193300000002
aF-9.3253331700000004
aF-9.3242886499999997
aF-9.3202384600000006
aF-9.3163641899999998
aF-9.3148163099999994
aF-9.3170952499999995
aF-9.3242462199999991
aF-9.3368647800000009
aF-9.3550668199999993
aF-9.3785453000000008
aF-9.4065610500000005
aF-9.4378259700000005
aF-9.4701641399999996
aF-9.4972409199999994
aF-9.5220908400000006
aF-9.53855012
aF-9.5467586200000003
aF-9.5480073900000004
aF-9.5446282
aF-9.5399640100000003
aF-9.5366852899999994
aF-9.5365996800000001
aF-9.5409686600000008
aF-9.5506021499999996
aF-9.5658323000000003
aF-9.5865581800000008
aF-9.6122753099999994
aF-9.6419968899999997
aF-9.6741172899999999
aF-9.7034976299999993
aF-9.7305471600000004
aF-9.7515341299999996
aF-9.7642186399999993
aF-9.7691689900000007
aF-9.7680103799999998
aF-9.7638253899999992
aF-9.7598227699999995
aF-9.7581612
aF-9.7603396199999999
aF-9.7673996699999996
aF-9.7799318900000003
aF-9.7980473700000008
aF-9.8214368099999998
aF-9.8493636599999999
aaa(lp153
S'Res_AdjFlow[2]'
p154
a(lp155
F-5.1636553300000001
aF-5.0393304099999998
aF-5.0678115000000004
aF-5.0451408899999999
aF-5.0891176800000002
aF-5.0813917999999996
aF-5.1054189900000004
aF-5.1344801999999996
aF-5.1498736899999997
aF-5.1697112900000004
aF-5.1907309499999998
aF-5.2020180600000003
aF-5.2106760599999999
aF-5.2223459999999999
aF-5.2346837800000001
aF-5.2469028299999998
aF-5.2609408100000001
aF-5.2780134800000003
aF-5.2981865700000004
aF-5.3215422600000002
aF-5.3489271900000004
aF-5.3823904699999998
aF-5.3996974199999999
aF-5.4335154299999999
aF-5.4681994400000002
aF-5.5035957499999997
aF-5.5403948099999996
aF-5.5769176399999996
aF-5.6120877499999997
aF-5.6430269700000002
aF-5.6692489999999998
aF-5.6914655600000001
aF-5.7091464900000002
aF-5.7219514199999999
aF-5.7309480500000003
aF-5.7376589999999998
aF-5.74309811
aF-5.7476941799999999
aF-5.7515955500000002
aF-5.7548833500000001
aF-5.7576495799999998
aF-5.76008619
aF-5.7629298000000002
aF-5.76784344
aF-5.7692207700000004
aF-5.7704193300000002
aF-5.7743977400000004
aF-5.7806059699999999
aF-5.7884046099999997
aF-5.7981999599999998
aF-5.81019972
aF-5.8243317699999997
aF-5.84057855
aF-5.8588732200000004
aF-5.8790445
aF-5.9011346099999997
aF-5.9228292600000003
aF-5.9430900400000004
aF-5.9651582400000001
aF-5.9877008600000003
aF-6.00976759
aF-6.0307179700000004
aF-6.0507603100000003
aF-6.0701299500000001
aF-6.0888016399999998
aF-6.10689774
aF-6.1245589899999997
aF-6.14181651
aF-6.1587628099999998
aF-6.17559272
aF-6.1924615100000002
aF-6.2094562700000004
aF-6.2266969000000003
aF-6.2440554199999996
aF-6.2585601500000001
aF-6.2726853299999998
aF-6.2884749700000002
aF-6.3046348700000001
aF-6.3202843
aF-6.33623168
aF-6.3529338299999996
aF-6.3705238
aF-6.3891892199999996
aF-6.4090495799999996
aF-6.4300269400000003
aF-6.4519901199999996
aF-6.4748325700000002
aF-6.4985366999999998
aF-6.5238429900000003
aF-6.5416513600000004
aF-6.5623874400000002
aF-6.5843597899999997
aF-6.6060691299999998
aF-6.6262236000000003
aF-6.6455162899999998
aF-6.6646523899999996
aF-6.6835848599999998
aF-6.70263689
aF-6.7222182000000004
aF-6.7424318799999998
aF-6.7631782600000001
aF-6.7843711100000004
aF-6.8058460399999996
aF-6.8273079699999997
aF-6.8487583499999998
aF-6.86615222
aF-6.8839502000000001
aF-6.8999648899999997
aF-6.91521483
aF-6.9295137200000001
aF-6.9430565
aF-6.9570845400000003
aF-6.9724514900000001
aF-6.98963175
aF-7.0091564200000001
aF-7.0314357100000002
aF-7.0566348699999999
aF-7.0847497300000004
aF-7.1155870200000004
aF-7.14863976
aF-7.1830202200000004
aF-7.2175734299999998
aF-7.2518031599999997
aF-7.2774589699999996
aF-7.2978698700000004
aF-7.3147859100000003
aF-7.3293395700000001
aF-7.3374477999999996
aF-7.3426342900000003
aF-7.3480960499999997
aF-7.3551940399999998
aF-7.3646305099999996
aF-7.3769974300000003
aF-7.3925173400000004
aF-7.4110146400000003
aF-7.4321692099999996
aF-7.4555199300000004
aF-7.4804179
aF-7.50523366
aF-7.52086407
aF-7.5419571400000001
aF-7.5584309699999999
aF-7.5716602399999999
aF-7.5819333000000002
aF-7.5904175
aF-7.5999496600000001
aF-7.6105789699999997
aF-7.6228755000000001
aF-7.6378294200000001
aF-7.6555729399999999
aF-7.6758399500000003
aF-7.69834905
aF-7.7224194700000002
aF-7.74686947
aF-7.7704764099999997
aF-7.7924154000000003
aF-7.8003042599999999
aF-7.8096602300000004
aF-7.8170399000000002
aF-7.8201266399999998
aF-7.820335
aF-7.82072886
aF-7.8236925299999998
aF-7.8297692100000003
aF-7.83940473
aF-7.8529881499999998
aF-7.8704255200000004
aF-7.8913454200000004
aF-7.9152467
aF-7.9413688100000002
aF-7.9688954699999996
aF-7.9866821000000003
aF-8.0093195099999992
aF-8.0277606400000003
aF-8.0415839699999996
aF-8.0494145400000008
aF-8.0538686199999994
aF-8.0575293099999996
aF-8.0620882500000004
aF-8.0683823500000003
aF-8.0772154300000008
aF-8.0890894699999993
aF-8.1040300799999994
aF-8.1218798799999998
aF-8.1422692899999998
aF-8.1643816999999999
aF-8.1871155400000006
aF-8.2096632399999994
aF-8.2204736999999994
aF-8.2344325600000001
aF-8.2445013500000002
aF-8.2502604700000006
aF-8.2523625299999992
aF-8.2531341699999992
aF-8.2552915900000006
aF-8.2597208299999991
aF-8.2670980499999995
aF-8.2780770300000004
aF-8.2928076500000003
aF-8.3111260100000006
aF-8.3327542000000001
aF-8.3571412499999997
aF-8.3833699500000005
aF-8.4104940300000006
aF-8.4338309700000007
aF-8.4497686600000002
aF-8.4663115199999996
aF-8.4797038300000001
aF-8.4864474199999993
aF-8.4898562799999997
aF-8.4925040799999998
aF-8.4968825900000002
aF-8.50337605
aF-8.5125392600000005
aF-8.5250369900000003
aF-8.5408839600000004
aF-8.5598043599999993
aF-8.5814491999999998
aF-8.6050678200000004
aF-8.6295563099999999
aF-8.6539648499999995
aF-8.6664279400000002
aF-8.6827750600000009
aF-8.6945910899999994
aF-8.7017954399999997
aF-8.7052132499999999
aF-8.7069906899999996
aF-8.7099963299999992
aF-8.7149919100000002
aF-8.72270067
aF-8.7339089100000002
aF-8.7487836699999999
aF-8.76713144
aF-8.7886582900000008
aF-8.8127588499999998
aF-8.8384059399999995
aF-8.8645018400000009
aF-8.8875859599999991
aF-8.9013248699999998
aF-8.9156154599999997
aF-8.9264630599999997
aF-8.9312135399999999
aF-8.9327337199999999
aF-8.9336070299999992
aF-8.9365444699999994
aF-8.9419734500000008
aF-8.95037533
aF-8.9623625600000008
aF-8.9779478600000004
aF-8.9968540899999994
aF-9.0187274399999993
aF-9.0428563999999998
aF-9.0682086000000002
aF-9.0940147099999997
aF-9.1071228600000005
aF-9.1251525900000008
aF-9.1389905500000008
aF-9.1477848700000006
aF-9.1522850299999998
aF-9.1548624699999994
aF-9.1583088499999992
aF-9.1634378299999995
aF-9.1710555599999992
aF-9.1819715800000008
aF-9.1963606099999993
aF-9.2140390700000001
aF-9.2347322500000004
aF-9.2578668900000007
aF-9.28246869
aF-9.3075621799999997
aF-9.3271517300000006
aF-9.34161967
aF-9.3557716499999994
aF-9.3664615900000001
aF-9.3711549499999993
aF-9.3730753399999998
aF-9.3746785300000006
aF-9.3783369400000005
aF-9.3844950800000007
aF-9.3936219800000007
aF-9.4062487899999994
aF-9.4223598200000005
aF-9.4416910099999996
aF-9.4638831000000003
aF-9.4881905500000006
aF-9.5135468400000001
aF-9.5391923300000006
aF-9.5520009300000002
aF-9.56931099
aF-9.5824906700000003
aF-9.5906180800000005
aF-9.59451505
aF-9.5966063300000002
aF-9.5996949800000007
aF-9.6045828499999999
aF-9.6120467499999993
aF-9.6228672199999998
aF-9.6371991000000001
aF-9.6548436599999992
aF-9.6755119599999997
aF-9.6986225699999995
aF-9.7232061900000009
aF-9.7483134800000002
aF-9.7671799700000008
aF-9.7822540399999998
aF-9.7966789900000002
aF-9.80754035
aF-9.8124994999999995
aF-9.8148026500000007
aF-9.8168433099999994
aF-9.8208950999999995
aF-9.8274180500000003
aF-9.8368907799999992
aF-9.8498306400000004
aF-9.8662135899999992
aF-9.88577482
aF-9.9081476800000008
aF-9.9325658400000005
aF-9.9579332899999997
aF-9.9834669799999993
aF-9.9962817200000007
aF-10.0132476
aF-10.025999000000001
aF-10.0337709
aF-10.0373638
aF-10.0391963
aF-10.042092500000001
aF-10.046871899999999
aF-10.054294199999999
aF-10.065122499999999
aF-10.079507899999999
aF-10.097249
aF-10.118050800000001
aF-10.1413277
aF-10.166109000000001
aF-10.191444199999999
aF-10.210577199999999
aF-10.225858499999999
aF-10.2404738
aF-10.251524099999999
aF-10.2565946
aF-10.258954599999999
aF-10.2610204
aF-10.265071900000001
aF-10.2715733
aF-10.2810054
aF-10.2938838
aF-10.3101831
aF-10.329638900000001
aF-10.3518864
aF-10.3761639
aaa(lp156
S'Res_AdjFlow[3]'
p157
a(lp158
F-5.2804199599999997
aF-5.28269389
aF-5.3975089399999998
aF-5.43414149
aF-5.4889207799999999
aF-5.4449626999999996
aF-5.4187872800000001
aF-5.3906009399999997
aF-5.3656214999999996
aF-5.3522136500000004
aF-5.3467423500000004
aF-5.3470873399999999
aF-5.3536937800000004
aF-5.3648468999999999
aF-5.3787150700000002
aF-5.39531984
aF-5.4154165000000001
aF-5.4391528999999998
aF-5.46618636
aF-5.4963791899999999
aF-5.5305695200000002
aF-5.5712282000000002
aF-5.5942538800000001
aF-5.6345956800000003
aF-5.6697499799999997
aF-5.7089524200000001
aF-5.7523787500000001
aF-5.7926187200000001
aF-5.8279246599999999
aF-5.8602344899999999
aF-5.8901044799999998
aF-5.9164618100000004
aF-5.93934067
aF-5.9600298199999999
aF-5.9797505800000001
aF-5.9992299999999998
aF-6.0188608600000002
aF-6.0387533900000001
aF-6.05868582
aF-6.0781219399999999
aF-6.0963589000000002
aF-6.1128372600000001
aF-6.1281439300000002
aF-6.1456655199999997
aF-6.1531992000000004
aF-6.15822278
aF-6.1641849799999999
aF-6.1704922900000003
aF-6.17758669
aF-6.1862530099999997
aF-6.1968811500000003
aF-6.2096236600000001
aF-6.2246208200000002
aF-6.2419550399999997
aF-6.2616634199999996
aF-6.2847738299999998
aF-6.3074744799999998
aF-6.3217591999999998
aF-6.3409402000000004
aF-6.3594874600000004
aF-6.3777559400000001
aF-6.3940498400000001
aF-6.4085549899999998
aF-6.4219364800000003
aF-6.4348109999999998
aF-6.4474134599999999
aF-6.4603190399999999
aF-6.4741952400000002
aF-6.4895263400000003
aF-6.50657906
aF-6.5255356899999999
aF-6.5465683600000002
aF-6.57005105
aF-6.5966270299999996
aF-6.6191595799999998
aF-6.6374746199999999
aF-6.6580326400000001
aF-6.6778972300000001
aF-6.6969714800000002
aF-6.7143941800000002
aF-6.7302649800000003
aF-6.7452856900000002
aF-6.7599296100000004
aF-6.7746564400000002
aF-6.7899157299999997
aF-6.8060793400000001
aF-6.8234899799999997
aF-6.8428888399999996
aF-6.86831149
aF-6.87780418
aF-6.8919461399999999
aF-6.9100928399999999
aF-6.9293416299999997
aF-6.94961977
aF-6.9686108400000002
aF-6.9866598299999998
aF-7.0047276700000003
aF-7.0230177100000004
aF-7.0413696699999999
aF-7.0599156699999996
aF-7.0788833799999997
aF-7.0983066299999997
aF-7.1181013799999997
aF-7.1383031399999997
aF-7.1603849200000003
aF-7.1766763100000004
aF-7.1940125100000003
aF-7.2088066299999998
aF-7.2229496800000001
aF-7.2367429300000001
aF-7.2491846100000004
aF-7.2608510199999996
aF-7.2727057899999998
aF-7.2853244500000001
aF-7.2990712899999997
aF-7.3142841299999999
aF-7.3312941900000004
aF-7.3503167500000002
aF-7.3714013200000004
aF-7.3944374799999997
aF-7.41915514
aF-7.4452266099999997
aF-7.47377818
aF-7.5008208400000003
aF-7.5161135799999998
aF-7.5352457900000003
aF-7.5508153
aF-7.5640163300000003
aF-7.57410344
aF-7.5820475199999997
aF-7.5896885999999997
aF-7.5979596200000001
aF-7.6075692500000001
aF-7.61921012
aF-7.6334576600000004
aF-7.6505470300000002
aF-7.6704909299999997
aF-7.6934172099999998
aF-7.7210742699999999
aF-7.7350090500000004
aF-7.7603482699999997
aF-7.7801066499999996
aF-7.7990510500000001
aF-7.8151052300000003
aF-7.8269746500000004
aF-7.8365532399999998
aF-7.8453725199999997
aF-7.8541876200000003
aF-7.86368855
aF-7.8747960800000003
aF-7.88824302
aF-7.9043372600000001
aF-7.9230919399999999
aF-7.9443080500000001
aF-7.9677898100000002
aF-7.9957247899999997
aF-8.0103645799999992
aF-8.0304857399999996
aF-8.0457098200000008
aF-8.0580607299999993
aF-8.0672900399999996
aF-8.0730255
aF-8.0774923800000007
aF-8.0823585799999993
aF-8.0885568499999998
aF-8.0968761100000002
aF-8.1079982099999999
aF-8.1222895299999998
aF-8.1397872000000007
aF-8.1603579699999997
aF-8.1844407399999994
aF-8.2055540300000001
aF-8.2249988100000007
aF-8.2451910799999997
aF-8.2620813900000005
aF-8.2763898099999995
aF-8.2858454399999992
aF-8.2918036799999992
aF-8.2965719399999998
aF-8.3012655300000002
aF-8.3067051000000003
aF-8.3138747899999998
aF-8.3236475799999994
aF-8.3364797300000006
aF-8.3524755299999995
aF-8.3715118999999998
aF-8.3933934499999996
aF-8.4194378699999994
aF-8.4358109100000007
aF-8.4575173199999991
aF-8.4741476999999996
aF-8.4881064500000001
aF-8.4985861200000006
aF-8.5046066400000004
aF-8.5082669499999994
aF-8.5114143299999991
aF-8.5151059399999998
aF-8.5202705000000005
aF-8.5278069199999997
aF-8.5383422499999995
aF-8.5521568699999992
aF-8.5692748400000003
aF-8.5895555300000002
aF-8.6131313600000006
aF-8.6416636899999997
aF-8.6541617300000002
aF-8.6770257199999996
aF-8.6943785099999999
aF-8.7098257199999995
aF-8.7214794900000001
aF-8.7289289300000004
aF-8.7347643599999998
aF-8.7403622500000004
aF-8.7465061500000001
aF-8.7540458999999995
aF-8.7639142499999991
aF-8.7766577199999993
aF-8.7924305399999998
aF-8.8111617100000004
aF-8.8327490999999991
aF-8.8586719800000004
aF-8.8738178600000008
aF-8.8964153699999997
aF-8.9135448400000001
aF-8.9285388399999999
aF-8.9404312899999994
aF-8.9479100599999999
aF-8.9530655699999997
aF-8.95765207
aF-8.9626338499999996
aF-8.9688786500000006
aF-8.9773080699999994
aF-8.9885843199999993
aF-9.0030006100000008
aF-9.0205743700000003
aF-9.0411265400000005
aF-9.0646333600000002
aF-9.0931563000000004
aF-9.1058838600000005
aF-9.1281039600000007
aF-9.1439782699999999
aF-9.1576526000000005
aF-9.1673946199999996
aF-9.1729757200000002
aF-9.1770009800000008
aF-9.1809750700000006
aF-9.18576865
aF-9.1922693399999993
aF-9.2013748700000004
aF-9.2136087999999994
aF-9.2291285900000002
aF-9.2478747800000001
aF-9.2697569899999994
aF-9.2962246000000004
aF-9.3123008699999996
aF-9.3356870700000005
aF-9.3543073400000001
aF-9.3705999099999993
aF-9.3838023100000001
aF-9.3922064899999995
aF-9.3979084900000007
aF-9.4027389800000005
aF-9.4076962599999998
aF-9.4136993899999997
aF-9.4217470399999996
aF-9.4325683199999997
aF-9.4465051300000002
aF-9.4636176200000008
aF-9.4837843100000008
aF-9.5071578900000002
aF-9.5340465000000005
aF-9.5476389200000007
aF-9.5695407800000005
aF-9.58575774
aF-9.6000532300000003
aF-9.6100922700000009
aF-9.6161030000000007
aF-9.6206134799999994
aF-9.62499255
aF-9.6300790599999999
aF-9.6367811799999998
aF-9.6460054900000003
aF-9.65827919
aF-9.6737638599999993
aF-9.6924049799999992
aF-9.7141177499999998
aF-9.7404312700000002
aF-9.7561997999999992
aF-9.7791680099999994
aF-9.79738446
aF-9.8132627899999996
aF-9.8260768400000007
aF-9.8341909800000007
aF-9.8396891899999996
aF-9.8443711900000004
aF-9.84922684
aF-9.8551658999999994
aF-9.8631698599999993
aF-9.8739498500000007
aF-9.8878375399999996
aF-9.9048901100000002
aF-9.9249936900000009
aF-9.9483539200000006
aF-9.9745888800000007
aF-9.9886054899999994
aF-10.010305799999999
aF-10.026694300000001
aF-10.041304200000001
aF-10.0516513
aF-10.0580737
aF-10.063058099999999
aF-10.067909500000001
aF-10.073435099999999
aF-10.0805279
aF-10.0900874
aF-10.1026366
aF-10.118331100000001
aF-10.1371067
aF-10.1588622
aF-10.1850962
aF-10.2009068
aF-10.2235975
aF-10.2414697
aF-10.256952099999999
aF-10.2693545
aF-10.2771381
aF-10.2823926
aF-10.2869166
aF-10.291701700000001
aF-10.2976501
aF-10.305723499999999
aF-10.316614899999999
aF-10.330642599999999
aF-10.347852899999999
aF-10.3681216
aF-10.391646
aF-10.418070999999999
aF-10.4321837
aF-10.4539791
aF-10.470423200000001
aF-10.4850222
aF-10.4953243
aF-10.5016731
aF-10.5065726
aF-10.511334700000001
aF-10.516772
aF-10.523783999999999
aF-10.5332732
aF-10.545762099999999
aF-10.5614069
aF-10.5801479
aaa(lp159
S'Res_AdjFlow[4]'
p160
a(lp161
F0
aF0
aF0
aF0
aF0
aF0
aF0
aF0
aF0
aF0
aF0
aF0
aF0
aF0
aF0
aF0
aF0
aF0
aF0
aF0
aF0
aF0
aF0
aF0
aF0
aF0
aF0
aF0
aF0
aF0
aF0
aF0
aF0
aF0
aF0
aF0
aF0
aF0
aF0
aF0
aF0
aF0
aF0
aF0
aF0
aF0
aF0
aF0
aF0
aF0
aF0
aF0
aF0
aF0
aF0
aF0
aF0
aF0
aF0
aF0
aF0
aF0
aF0
aF0
aF0
aF0
aF0
aF0
aF0
aF0
aF0
aF0
aF0
aF0
aF0
aF0
aF0
aF0
aF0
aF0
aF0
aF0
aF0
aF0
aF0
aF0
aF0
aF0
aF0
aF0
aF0
aF0
aF0
aF0
aF0
aF0
aF0
aF0
aF0
aF0
aF0
aF0
aF0
aF0
aF0
aF0
aF0
aF0
aF0
aF0
aF0
aF0
aF0
aF0
aF0
aF0
aF0
aF0
aF0
aF0
aF0
aF0
aF0
aF0
aF0
aF0
aF0
aF0
aF0
aF0
aF0
aF0
aF0
aF0
aF0
aF0
aF0
aF0
aF0
aF0
aF0
aF0
aF0
aF0
aF0
aF0
aF0
aF0
aF0
aF0
aF0
aF0
aF0
aF0
aF0
aF0
aF0
aF0
aF0
aF0
aF0
aF0
aF0
aF0
aF0
aF0
aF0
aF0
aF0
aF0
aF0
aF0
aF0
aF0
aF0
aF0
aF0
aF0
aF0
aF0
aF0
aF0
aF0
aF0
aF0
aF0
aF0
aF0
aF0
aF0
aF0
aF0
aF0
aF0
aF0
aF0
aF0
aF0
aF0
aF0
aF0
aF0
aF0
aF0
aF0
aF0
aF0
aF0
aF0
aF0
aF0
aF0
aF0
aF0
aF0
aF0
aF0
aF0
aF0
aF0
aF0
aF0
aF0
aF0
aF0
aF0
aF0
aF0
aF0
aF0
aF0
aF0
aF0
aF0
aF0
aF0
aF0
aF0
aF0
aF0
aF0
aF0
aF0
aF0
aF0
aF0
aF0
aF0
aF0
aF0
aF0
aF0
aF0
aF0
aF0
aF0
aF0
aF0
aF0
aF0
aF0
aF0
aF0
aF0
aF0
aF0
aF0
aF0
aF0
aF0
aF0
aF0
aF0
aF0
aF0
aF0
aF0
aF0
aF0
aF0
aF0
aF0
aF0
aF0
aF0
aF0
aF0
aF0
aF0
aF0
aF0
aF0
aF0
aF0
aF0
aF0
aF0
aF0
aF0
aF0
aF0
aF0
aF0
aF0
aF0
aF0
aF0
aF0
aF0
aF0
aF0
aF0
aF0
aF0
aF0
aF0
aF0
aF0
aF0
aF0
aF0
aF0
aF0
aF0
aF0
aF0
aF0
aF0
aF0
aF0
aF0
aF0
aF0
aF0
aF0
aF0
aF0
aF0
aF0
aF0
aF0
aF0
aF0
aF0
aF0
aF0
aF0
aF0
aF0
aF0
aF0
aaa(lp162
S'Linear_Solver_Iterations'
p163
a(lp164
F2
aF2
aF2
aF2
aF2
aF2
aF2
aF2
aF2
aF2
aF2
aF2
aF2
aF2
aF2
aF2
aF2
aF2
aF2
aF2
aF2
aF2
aF2
aF2
aF2
aF2
aF2
aF2
aF2
aF2
aF2
aF2
aF2
aF2
aF2
aF2
aF2
aF2
aF2
aF2
aF2
aF2
aF2
aF2
aF2
aF2
aF2
aF2
aF2
aF2
aF2
aF2
aF2
aF2
aF2
aF2
aF2
aF2
aF2
aF2
aF2
aF2
aF2
aF2
aF2
aF2
aF2
aF2
aF2
aF2
aF2
aF2
aF2
aF2
aF2
aF2
aF2
aF2
aF2
aF2
aF2
aF2
aF2
aF2
aF2
aF2
aF2
aF2
aF2
aF2
aF2
aF2
aF2
aF2
aF2
aF2
aF2
aF2
aF2
aF2
aF2
aF2
aF2
aF2
aF2
aF2
aF2
aF2
aF2
aF2
aF2
aF2
aF2
aF2
aF2
aF2
aF2
aF2
aF2
aF2
aF2
aF2
aF2
aF2
aF2
aF2
aF2
aF2
aF2
aF2
aF2
aF2
aF2
aF2
aF2
aF2
aF2
aF2
aF2
aF2
aF2
aF2
aF2
aF2
aF2
aF2
aF2
aF2
aF2
aF2
aF2
aF2
aF2
aF2
aF2
aF2
aF2
aF2
aF2
aF2
aF2
aF2
aF2
aF2
aF2
aF2
aF2
aF2
aF2
aF2
aF2
aF2
aF2
aF2
aF2
aF2
aF2
aF2
aF2
aF2
aF2
aF2
aF2
aF2
aF2
aF2
aF2
aF2
aF2
aF2
aF2
aF2
aF2
aF2
aF2
aF2
aF2
aF2
aF2
aF2
aF2
aF2
aF2
aF2
aF2
aF2
aF2
aF2
aF2
aF2
aF2
aF2
aF2
aF2
aF2
aF2
aF2
aF2
aF2
aF2
aF2
aF2
aF2
aF2
aF2
aF2
aF2
aF2
aF2
aF2
aF2
aF2
aF2
aF2
aF2
aF2
aF2
aF2
aF2
aF2
aF2
aF2
aF2
aF2
aF2
aF2
aF2
aF2
aF2
aF2
aF2
aF2
aF2
aF2
aF2
aF2
aF2
aF2
aF2
aF2
aF2
aF2
aF2
aF2
aF2
aF2
aF2
aF2
aF2
aF2
aF2
aF2
aF2
aF2
aF2
aF2
aF2
aF2
aF2
aF2
aF2
aF2
aF2
aF2
aF2
aF2
aF2
aF2
aF2
aF2
aF2
aF2
aF2
aF2
aF2
aF2
aF2
aF2
aF2
aF2
aF2
aF2
aF2
aF2
aF2
aF2
aF2
aF2
aF2
aF2
aF2
aF2
aF2
aF2
aF2
aF2
aF2
aF2
aF2
aF2
aF2
aF2
aF2
aF2
aF2
aF2
aF2
aF2
aF2
aF2
aF2
aF2
aF2
aF2
aF2
aF2
aF2
aF2
aF2
aF2
aF2
aF2
aF2
aF2
aF2
aF2
aF2
aF2
aF2
aF2
aF2
aaa(lp165
S'CFL_Number'
p166
a(lp167
F8
aF8
aF8
aF8
aF8
aF8
aF8
aF8
aF8
aF8
aF8
aF8
aF8
aF8
aF8
aF8
aF8
aF8
aF8
aF8
aF8
aF8
aF8
aF8
aF8
aF8
aF8
aF8
aF8
aF8
aF8
aF8
aF8
aF8
aF8
aF8
aF8
aF8
aF8
aF8
aF8
aF8
aF8
aF8
aF8
aF8
aF8
aF8
aF8
aF8
aF8
aF8
aF8
aF8
aF8
aF8
aF8
aF8
aF8
aF8
aF8
aF8
aF8
aF8
aF8
aF8
aF8
aF8
aF8
aF8
aF8
aF8
aF8
aF8
aF8
aF8
aF8
aF8
aF8
aF8
aF8
aF8
aF8
aF8
aF8
aF8
aF8
aF8
aF8
aF8
aF8
aF8
aF8
aF8
aF8
aF8
aF8
aF8
aF8
aF8
aF8
aF8
aF8
aF8
aF8
aF8
aF8
aF8
aF8
aF8
aF8
aF8
aF8
aF8
aF8
aF8
aF8
aF8
aF8
aF8
aF8
aF8
aF8
aF8
aF8
aF8
aF8
aF8
aF8
aF8
aF8
aF8
aF8
aF8
aF8
aF8
aF8
aF8
aF8
aF8
aF8
aF8
aF8
aF8
aF8
aF8
aF8
aF8
aF8
aF8
aF8
aF8
aF8
aF8
aF8
aF8
aF8
aF8
aF8
aF8
aF8
aF8
aF8
aF8
aF8
aF8
aF8
aF8
aF8
aF8
aF8
aF8
aF8
aF8
aF8
aF8
aF8
aF8
aF8
aF8
aF8
aF8
aF8
aF8
aF8
aF8
aF8
aF8
aF8
aF8
aF8
aF8
aF8
aF8
aF8
aF8
aF8
aF8
aF8
aF8
aF8
aF8
aF8
aF8
aF8
aF8
aF8
aF8
aF8
aF8
aF8
aF8
aF8
aF8
aF8
aF8
aF8
aF8
aF8
aF8
aF8
aF8
aF8
aF8
aF8
aF8
aF8
aF8
aF8
aF8
aF8
aF8
aF8
aF8
aF8
aF8
aF8
aF8
aF8
aF8
aF8
aF8
aF8
aF8
aF8
aF8
aF8
aF8
aF8
aF8
aF8
aF8
aF8
aF8
aF8
aF8
aF8
aF8
aF8
aF8
aF8
aF8
aF8
aF8
aF8
aF8
aF8
aF8
aF8
aF8
aF8
aF8
aF8
aF8
aF8
aF8
aF8
aF8
aF8
aF8
aF8
aF8
aF8
aF8
aF8
aF8
aF8
aF8
aF8
aF8
aF8
aF8
aF8
aF8
aF8
aF8
aF8
aF8
aF8
aF8
aF8
aF8
aF8
aF8
aF8
aF8
aF8
aF8
aF8
aF8
aF8
aF8
aF8
aF8
aF8
aF8
aF8
aF8
aF8
aF8
aF8
aF8
aF8
aF8
aF8
aF8
aF8
aF8
aF8
aF8
aF8
aF8
aF8
aF8
aF8
aF8
aF8
aF8
aF8
aF8
aF8
aF8
aF8
aF8
aF8
aF8
aF8
aF8
aF8
aF8
aF8
aaa(lp168
S'Time(min)"\n'
p169
a(lp170
F0.0023015856999999999
aF0.0034071008
aF0.0046086191999999996
aF0.005668668
aF0.0067045689
aF0.0076996525000000001
aF0.0087142665999999994
aF0.0097995162000000004
aF0.0108113845
aF0.011931518699999999
aF0.0129458348
aF0.013958668699999999
aF0.015232765699999999
aF0.0162388007
aF0.0172193686
aF0.018217285499999999
aF0.0191971183
aF0.020271500000000001
aF0.021362733799999999
aF0.022354634599999999
aF0.023422316700000001
aF0.024423332999999998
aF0.0254215837
aF0.026479268100000002
aF0.027465017599999999
aF0.028454132900000002
aF0.029425017000000001
aF0.0304068844
aF0.031571416099999999
aF0.032623533400000002
aF0.033610951899999998
aF0.034613549700000003
aF0.035592567899999997
aF0.036668467500000003
aF0.037750717000000003
aF0.038778750100000002
aF0.039786783899999997
aF0.040812285699999999
aF0.0418174823
aF0.043001167
aF0.0440201998
aF0.045067600399999998
aF0.046066784899999998
aF0.047059834000000002
aF0.048066218700000003
aF0.049062701100000002
aF0.050047965799999997
aF0.051029682200000002
aF0.0520295858
aF0.053077952099999999
aF0.054314235799999999
aF0.0553678513
aF0.056355802199999999
aF0.057360867699999998
aF0.058331517399999998
aF0.059328083199999999
aF0.060409299499999999
aF0.061710150999999998
aF0.0629943689
aF0.064091817499999995
aF0.065127118400000003
aF0.066349685199999994
aF0.067441749600000003
aF0.068464434099999999
aF0.069508334000000005
aF0.070661548800000001
aF0.071736200700000002
aF0.072729583599999995
aF0.073723868499999998
aF0.074728635900000007
aF0.0758782665
aF0.076975484699999999
aF0.0780239026
aF0.079055817900000006
aF0.080058582599999997
aF0.081132002699999997
aF0.082149485699999997
aF0.083137516199999997
aF0.084199651099999995
aF0.085198251399999994
aF0.086204318200000005
aF0.087282268199999999
aF0.088394367700000004
aF0.089400982899999995
aF0.090394302199999998
aF0.091403802199999995
aF0.092436369300000001
aF0.093505867300000003
aF0.094485569000000005
aF0.095476849899999994
aF0.096465551900000002
aF0.097438184400000002
aF0.098424001499999997
aF0.099434769199999995
aF0.1004129688
aF0.1014208992
aF0.1024343689
aF0.1035148501
aF0.1046433012
aF0.1056619525
aF0.1066246827
aF0.1076270342
aF0.10860996639999999
aF0.1096697489
aF0.11064336700000001
aF0.1116706014
aF0.1127224008
aF0.1137392004
aF0.1147271514
aF0.1157308022
aF0.11672695080000001
aF0.11771895089999999
aF0.11871326760000001
aF0.1197544853
aF0.1209345341
aF0.12200921770000001
aF0.1229837855
aF0.1239522497
aF0.12494693599999999
aF0.12595028480000001
aF0.1269556006
aF0.12796895110000001
aF0.128949066
aF0.12994370059999999
aF0.1309218526
aF0.13190915189999999
aF0.1329045335
aF0.13388770019999999
aF0.1348836025
aF0.135883685
aF0.1369466503
aF0.1379932006
aF0.13902926839999999
aF0.1400190989
aF0.14103904959999999
aF0.14205533270000001
aF0.14308823349999999
aF0.1441864689
aF0.14555548430000001
aF0.14672868250000001
aF0.14785251620000001
aF0.1489355524
aF0.14995301559999999
aF0.15106800000000001
aF0.15209866759999999
aF0.15312075219999999
aF0.1542429169
aF0.15528968570000001
aF0.15632348460000001
aF0.15728884940000001
aF0.1582912326
aF0.15932300090000001
aF0.16036653519999999
aF0.16133901680000001
aF0.16232613330000001
aF0.16334611569999999
aF0.16430490019999999
aF0.1652848999
aF0.16632935209999999
aF0.1673595349
aF0.1683379173
aF0.16936398350000001
aF0.1704611023
aF0.17150984999999999
aF0.1725476185
aF0.1735487342
aF0.17453498440000001
aF0.1755689184
aF0.17659811580000001
aF0.1776364684
aF0.1787379821
aF0.1797182004
aF0.18070435130000001
aF0.1817095836
aF0.1826949517
aF0.18367491559999999
aF0.1846695344
aF0.1856363654
aF0.18668048379999999
aF0.18789401850000001
aF0.1889576674
aF0.18994770050000001
aF0.1909347693
aF0.1919321179
aF0.19296121599999999
aF0.19403236709999999
aF0.1950350324
aF0.19604105150000001
aF0.19705934920000001
aF0.19805096790000001
aF0.19906488259999999
aF0.20003830189999999
aF0.2010557016
aF0.2020609498
aF0.20311346850000001
aF0.20430213210000001
aF0.20529561839999999
aF0.2063120842
aF0.207283783
aF0.20828776760000001
aF0.2093117515
aF0.2103184183
aF0.21138138370000001
aF0.21242571669999999
aF0.2134148995
aF0.2144332846
aF0.21545208299999999
aF0.2164521019
aF0.2174315174
aF0.21843974990000001
aF0.21945060089999999
aF0.2205665191
aF0.22159365019999999
aF0.22263609970000001
aF0.2236737013
aF0.2246745825
aF0.22569241919999999
aF0.22673768599999999
aF0.22797696589999999
aF0.22929340200000001
aF0.2304341674
aF0.2314902663
aF0.2325165669
aF0.23356698349999999
aF0.23461879890000001
aF0.23559501569999999
aF0.23664063220000001
aF0.23773653510000001
aF0.2387350996
aF0.2397574663
aF0.24074111779999999
aF0.2417202353
aF0.2427511175
aF0.24375760160000001
aF0.244804736
aF0.24585416709999999
aF0.24683349930000001
aF0.24787306789999999
aF0.2488796512
aF0.24987871649999999
aF0.25087088349999997
aF0.25189058380000001
aF0.25288428470000002
aF0.25399134950000002
aF0.25504181780000001
aF0.25607148410000002
aF0.25705190100000003
aF0.2580588023
aF0.25913873510000002
aF0.26018806700000002
aF0.26115948360000002
aF0.26371638380000001
aF0.26470061540000001
aF0.26568641659999997
aF0.26667403379999999
aF0.26764825190000002
aF0.26861966850000002
aF0.26966738299999998
aF0.27073433400000002
aF0.27174886860000003
aF0.27278724910000002
aF0.2738196691
aF0.27483436659999999
aF0.27585123379999998
aF0.27698653540000001
aF0.27801821630000001
aF0.27906193340000002
aF0.28009408320000001
aF0.2810787837
aF0.2821124673
aF0.28309193449999998
aF0.2840792855
aF0.28507688440000001
aF0.28611636559999998
aF0.28723736599999999
aF0.28838676610000002
aF0.28942311599999998
aF0.29043313259999998
aF0.2917017341
aF0.29277023470000002
aF0.29380891720000002
aF0.2947900852
aF0.29578435019999999
aF0.29677385090000002
aF0.29778506760000001
aF0.29878524940000001
aF0.29980846639999997
aF0.30078885160000002
aF0.30178286630000001
aF0.30284175079999998
aF0.30400228499999998
aF0.3049930334
aF0.305990386
aF0.30707281829999999
aF0.30812845230000002
aF0.30911329980000002
aF0.3101814349
aF0.31146578390000002
aF0.31263761919999999
aF0.3138185342
aF0.31489576899999999
aF0.31595865090000003
aF0.31703416899999998
aF0.31811480120000002
aF0.31910788220000003
aF0.32030183470000001
aF0.32133981779999998
aF0.32231525179999998
aF0.32331206800000001
aF0.32429973280000002
aF0.32527701850000001
aF0.32634018259999997
aF0.32737881740000002
aF0.32836948240000002
aF0.32935761609999997
aF0.33034859900000002
aF0.33134783509999999
aF0.33234845000000002
aF0.33333546720000001
aF0.33435193299999999
aF0.33534151709999999
aF0.33636933569999999
aF0.337443618
aF0.33843331729999998
aF0.33944795129999999
aF0.34046529930000002
aF0.3414494991
aF0.34246890149999998
aF0.34355246620000002
aF0.34473450179999998
aF0.3461140513
aF0.34712011809999999
aF0.3481089155
aF0.3490962346
aF0.35008080009999998
aF0.35105460090000001
aF0.35204353329999999
aF0.35305911699999998
aF0.35413706700000003
aF0.35512200199999999
aF0.35612086850000002
aF0.35712391929999998
aF0.35814994970000003
aF0.35914468370000002
aF0.36017951570000001
aF0.36119413379999998
aF0.36221326590000003
aF0.36322236860000001
aF0.3642136017
aF0.36520196599999999
aF0.36624224979999997
aaatRp171
(dp172
g20
I01
sbaatRp173
(dp174
g20
I01
sbaatRp175
(dp176
g20
I01
sS'_timestamp'
p177
F1512769858.0006111
sbsS'folder'
p178
S'DESIGNS/DSN_004'
p179
sS'config'
p180
cSU2.io.config
Config
p181
((lp182
(lp183
S'PHYSICAL_PROBLEM'
p184
aS'EULER'
p185
aa(lp186
S'MATH_PROBLEM'
p187
aS'CONTINUOUS_ADJOINT'
p188
aa(lp189
S'RESTART_SOL'
p190
aS'YES'
p191
aa(lp192
S'MACH_NUMBER'
p193
aF0.80000000000000004
aa(lp194
S'AOA'
p195
aS'1.25'
p196
aa(lp197
S'FREESTREAM_PRESSURE'
p198
aS'101325.0'
p199
aa(lp200
S'FREESTREAM_TEMPERATURE'
p201
aS'288.15'
p202
aa(lp203
S'REF_ORIGIN_MOMENT_X'
p204
aS'0.25'
p205
aa(lp206
S'REF_ORIGIN_MOMENT_Y'
p207
aS'0.00'
p208
aa(lp209
S'REF_ORIGIN_MOMENT_Z'
p210
aS'0.00'
p211
aa(lp212
S'REF_LENGTH_MOMENT'
p213
aS'1.0'
p214
aa(lp215
S'REF_AREA'
p216
aS'1.0'
p217
aa(lp218
S'REF_DIMENSIONALIZATION'
p219
aS'FREESTREAM_PRESS_EQ_ONE'
p220
aa(lp221
S'MARKER_EULER'
p222
a(lp223
S'airfoil'
p224
aaa(lp225
S'MARKER_FAR'
p226
a(lp227
S'farfield'
p228
aaa(lp229
S'MARKER_PLOTTING'
p230
a(lp231
S'airfoil'
p232
aaa(lp233
S'MARKER_MONITORING'
p234
a(lp235
S'airfoil'
p236
aaa(lp237
S'NUM_METHOD_GRAD'
p238
aS'GREEN_GAUSS'
p239
aa(lp240
S'CFL_NUMBER'
p241
aF10
aa(lp242
S'CFL_ADAPT'
p243
aS'NO'
p244
aa(lp245
S'CFL_ADAPT_PARAM'
p246
aS'( 1.5, 0.5, 1.0, 100.0 )'
p247
aa(lp248
S'RK_ALPHA_COEFF'
p249
aS'( 0.66667, 0.66667, 1.000000 )'
p250
aa(lp251
S'EXT_ITER'
p252
aI1000
aa(lp253
S'LINEAR_SOLVER'
p254
aS'FGMRES'
p255
aa(lp256
S'LINEAR_SOLVER_PREC'
p257
aS'LU_SGS'
p258
aa(lp259
S'LINEAR_SOLVER_ERROR'
p260
aS'1E-4'
p261
aa(lp262
S'LINEAR_SOLVER_ITER'
p263
aS'2'
aa(lp264
S'MGLEVEL'
p265
aS'2'
aa(lp266
S'MGCYCLE'
p267
aS'V_CYCLE'
p268
aa(lp269
S'MG_PRE_SMOOTH'
p270
aS'( 1, 2, 3, 3 )'
p271
aa(lp272
S'MG_POST_SMOOTH'
p273
aS'( 0, 0, 0, 0 )'
p274
aa(lp275
S'MG_CORRECTION_SMOOTH'
p276
aS'( 0, 0, 0, 0 )'
p277
aa(lp278
S'MG_DAMP_RESTRICTION'
p279
aS'1.0'
p280
aa(lp281
S'MG_DAMP_PROLONGATION'
p282
aS'1.0'
p283
aa(lp284
S'CONV_NUM_METHOD_FLOW'
p285
aS'JST'
p286
aa(lp287
S'SLOPE_LIMITER_FLOW'
p288
aS'VENKATAKRISHNAN'
p289
aa(lp290
S'AD_COEFF_FLOW'
p291
aS'( 0.15, 0.5, 0.02 )'
p292
aa(lp293
S'TIME_DISCRE_FLOW'
p294
aS'EULER_IMPLICIT'
p295
aa(lp296
S'OBJECTIVE_FUNCTION'
p297
ag56
aa(lp298
S'CONV_NUM_METHOD_ADJFLOW'
p299
aS'JST'
p300
aa(lp301
S'SLOPE_LIMITER_ADJFLOW'
p302
aS'VENKATAKRISHNAN'
p303
aa(lp304
S'AD_COEFF_ADJFLOW'
p305
aS'( 0.15, 0.0, 0.02 )'
p306
aa(lp307
S'TIME_DISCRE_ADJFLOW'
p308
aS'EULER_IMPLICIT'
p309
aa(lp310
S'CFL_REDUCTION_ADJFLOW'
p311
aS'0.8'
p312
aa(lp313
S'LIMIT_ADJFLOW'
p314
aS'1E6'
p315
aa(lp316
S'GEO_MODE'
p317
aS'FUNCTION'
p318
aa(lp319
S'GEO_MARKER'
p320
aS'( airfoil )'
p321
aa(lp322
S'DV_KIND'
p323
a(lp324
S'HICKS_HENNE'
p325
ag325
ag325
ag325
ag325
ag325
ag325
ag325
ag325
ag325
ag325
ag325
ag325
ag325
ag325
ag325
ag325
ag325
ag325
ag325
ag325
ag325
ag325
ag325
ag325
ag325
ag325
ag325
ag325
ag325
ag325
ag325
ag325
ag325
ag325
ag325
ag325
ag325
aaa(lp326
S'DV_MARKER'
p327
a(lp328
S'airfoil'
p329
aaa(lp330
S'DV_PARAM'
p331
a(dp332
S'FFDTAG'
p333
(lp334
(lp335
a(lp336
a(lp337
a(lp338
a(lp339
a(lp340
a(lp341
a(lp342
a(lp343
a(lp344
a(lp345
a(lp346
a(lp347
a(lp348
a(lp349
a(lp350
a(lp351
a(lp352
a(lp353
a(lp354
a(lp355
a(lp356
a(lp357
a(lp358
a(lp359
a(lp360
a(lp361
a(lp362
a(lp363
a(lp364
a(lp365
a(lp366
a(lp367
a(lp368
a(lp369
a(lp370
a(lp371
a(lp372
asS'PARAM'
p373
(lp374
(lp375
F0
aF0.050000000000000003
aa(lp376
F0
aF0.10000000000000001
aa(lp377
F0
aF0.14999999999999999
aa(lp378
F0
aF0.20000000000000001
aa(lp379
F0
aF0.25
aa(lp380
F0
aF0.29999999999999999
aa(lp381
F0
aF0.34999999999999998
aa(lp382
F0
aF0.40000000000000002
aa(lp383
F0
aF0.45000000000000001
aa(lp384
F0
aF0.5
aa(lp385
F0
aF0.55000000000000004
aa(lp386
F0
aF0.59999999999999998
aa(lp387
F0
aF0.65000000000000002
aa(lp388
F0
aF0.69999999999999996
aa(lp389
F0
aF0.75
aa(lp390
F0
aF0.80000000000000004
aa(lp391
F0
aF0.84999999999999998
aa(lp392
F0
aF0.90000000000000002
aa(lp393
F0
aF0.94999999999999996
aa(lp394
F1
aF0.050000000000000003
aa(lp395
F1
aF0.10000000000000001
aa(lp396
F1
aF0.14999999999999999
aa(lp397
F1
aF0.20000000000000001
aa(lp398
F1
aF0.25
aa(lp399
F1
aF0.29999999999999999
aa(lp400
F1
aF0.34999999999999998
aa(lp401
F1
aF0.40000000000000002
aa(lp402
F1
aF0.45000000000000001
aa(lp403
F1
aF0.5
aa(lp404
F1
aF0.55000000000000004
aa(lp405
F1
aF0.59999999999999998
aa(lp406
F1
aF0.65000000000000002
aa(lp407
F1
aF0.69999999999999996
aa(lp408
F1
aF0.75
aa(lp409
F1
aF0.80000000000000004
aa(lp410
F1
aF0.84999999999999998
aa(lp411
F1
aF0.90000000000000002
aa(lp412
F1
aF0.94999999999999996
aasS'SIZE'
p413
(lp414
I1
aI1
aI1
aI1
aI1
aI1
aI1
aI1
aI1
aI1
aI1
aI1
aI1
aI1
aI1
aI1
aI1
aI1
aI1
aI1
aI1
aI1
aI1
aI1
aI1
aI1
aI1
aI1
aI1
aI1
aI1
aI1
aI1
aI1
aI1
aI1
aI1
aI1
asaa(lp415
S'DV_VALUE'
p416
a(lp417
F4.3812669132190405e-05
aF-9.9849017127350291e-05
aF-0.0001878225649274985
aF-0.00022626096258069697
aF-0.00020660651819518253
aF-0.00011867905017249372
aF3.9741267450456487e-05
aF0.00025579242714274052
aF0.00049920840814441758
aF0.0007277845147281004
aF0.00090165924135142091
aF0.001002270502968271
aF0.0010454868521394289
aF0.0010766643441649489
aF0.0011457607774113833
aF0.0012824725928070172
aF0.0015043895877960773
aF0.0018736166904691324
aF0.002659219042114103
aF-0.0023758859400622619
aF-0.0041989088923660069
aF-0.005148468777880031
aF-0.0053047449458283333
aF-0.0048117493942713991
aF-0.0038640407168893959
aF-0.0026728382133730686
aF-0.001434128180694771
aF-0.00030885727776264915
aF0.00058304698300619016
aF0.0011583164314281167
aF0.0013648779900563258
aF0.0011874983028919448
aF0.00067324887828726929
aF-3.4549871642194705e-05
aF-0.00070856540154615448
aF-0.0011764727268253764
aF-0.0015279924509791637
aF-0.0021585452968139484
aaa(lp418
S'DEFORM_LINEAR_ITER'
p419
aS'500'
p420
aa(lp421
S'DEFORM_NONLINEAR_ITER'
p422
aS'1'
aa(lp423
S'DEFORM_CONSOLE_OUTPUT'
p424
aS'YES'
p425
aa(lp426
S'DEFORM_TOL_FACTOR'
p427
aS'0.001'
p428
aa(lp429
S'DEFORM_STIFFNESS_TYPE'
p430
aS'INVERSE_VOLUME'
p431
aa(lp432
S'CONV_CRITERIA'
p433
aS'RESIDUAL'
p434
aa(lp435
S'RESIDUAL_REDUCTION'
p436
aS'6'
aa(lp437
S'RESIDUAL_MINVAL'
p438
aS'-10'
p439
aa(lp440
S'STARTCONV_ITER'
p441
aS'10'
p442
aa(lp443
S'CAUCHY_ELEMS'
p444
aS'100'
p445
aa(lp446
S'CAUCHY_EPS'
p447
aS'1E-6'
p448
aa(lp449
S'CAUCHY_FUNC_FLOW'
p450
aS'DRAG'
p451
aa(lp452
S'CAUCHY_FUNC_ADJFLOW'
p453
aS'SENS_GEOMETRY'
p454
aa(lp455
S'MESH_FILENAME'
p456
ag11
aa(lp457
S'MESH_FORMAT'
p458
aS'SU2'
p459
aa(lp460
S'MESH_OUT_FILENAME'
p461
aS'mesh_out.su2'
p462
aa(lp463
S'SOLUTION_FLOW_FILENAME'
p464
ag14
aa(lp465
S'SOLUTION_ADJ_FILENAME'
p466
aS'solution_adj.dat'
p467
aa(lp468
S'OUTPUT_FORMAT'
p469
aS'PARAVIEW'
p470
aa(lp471
S'CONV_FILENAME'
p472
aS'history'
p473
aa(lp474
S'RESTART_FLOW_FILENAME'
p475
aS'restart_flow.dat'
p476
aa(lp477
S'RESTART_ADJ_FILENAME'
p478
aS'restart_adj.dat'
p479
aa(lp480
S'VOLUME_FLOW_FILENAME'
p481
aS'flow'
p482
aa(lp483
S'VOLUME_ADJ_FILENAME'
p484
aS'adjoint'
p485
aa(lp486
S'GRAD_OBJFUNC_FILENAME'
p487
aS'of_grad.dat'
p488
aa(lp489
S'SURFACE_FLOW_FILENAME'
p490
aS'surface_flow'
p491
aa(lp492
S'SURFACE_ADJ_FILENAME'
p493
aS'surface_adjoint'
p494
aa(lp495
S'WRT_SOL_FREQ'
p496
aF250
aa(lp497
S'WRT_SOL_FREQ_DUALTIME'
p498
aS'1'
aa(lp499
S'WRT_CON_FREQ'
p500
aS'1'
aa(lp501
S'WRT_CON_FREQ_DUALTIME'
p502
aS'10'
p503
aa(lp504
S'WRT_HALO'
p505
aS'NO'
p506
aa(lp507
S'OPT_OBJECTIVE'
p508
a(dp509
g56
(dp510
S'SCALE'
p511
F0.001
ssaa(lp512
S'OPT_CONSTRAINT'
p513
a(dp514
S'INEQUALITY'
p515
ccollections
OrderedDict
p516
((ltRp517
sS'EQUALITY'
p518
g516
((ltRp519
saa(lp520
S'OPT_ITERATIONS'
p521
aS'100'
p522
aa(lp523
S'OPT_ACCURACY'
p524
aS'1E-6'
p525
aa(lp526
S'OPT_BOUND_UPPER'
p527
aS'0.1'
p528
aa(lp529
S'OPT_BOUND_LOWER'
p530
aS'-0.1'
p531
aa(lp532
S'DEFINITION_DV'
p533
a(dp534
S'KIND'
p535
g324
sg511
(lp536
F1
aF1
aF1
aF1
aF1
aF1
aF1
aF1
aF1
aF1
aF1
aF1
aF1
aF1
aF1
aF1
aF1
aF1
aF1
aF1
aF1
aF1
aF1
aF1
aF1
aF1
aF1
aF1
aF1
aF1
aF1
aF1
aF1
aF1
aF1
aF1
aF1
aF1
asg373
g374
sS'MARKER'
p537
(lp538
g328
a(lp539
S'airfoil'
p540
aa(lp541
S'airfoil'
p542
aa(lp543
S'airfoil'
p544
aa(lp545
S'airfoil'
p546
aa(lp547
S'airfoil'
p548
aa(lp549
S'airfoil'
p550
aa(lp551
S'airfoil'
p552
aa(lp553
S'airfoil'
p554
aa(lp555
S'airfoil'
p556
aa(lp557
S'airfoil'
p558
aa(lp559
S'airfoil'
p560
aa(lp561
S'airfoil'
p562
aa(lp563
S'airfoil'
p564
aa(lp565
S'airfoil'
p566
aa(lp567
S'airfoil'
p568
aa(lp569
S'airfoil'
p570
aa(lp571
S'airfoil'
p572
aa(lp573
S'airfoil'
p574
aa(lp575
S'airfoil'
p576
aa(lp577
S'airfoil'
p578
aa(lp579
S'airfoil'
p580
aa(lp581
S'airfoil'
p582
aa(lp583
S'airfoil'
p584
aa(lp585
S'airfoil'
p586
aa(lp587
S'airfoil'
p588
aa(lp589
S'airfoil'
p590
aa(lp591
S'airfoil'
p592
aa(lp593
S'airfoil'
p594
aa(lp595
S'airfoil'
p596
aa(lp597
S'airfoil'
p598
aa(lp599
S'airfoil'
p600
aa(lp601
S'airfoil'
p602
aa(lp603
S'airfoil'
p604
aa(lp605
S'airfoil'
p606
aa(lp607
S'airfoil'
p608
aa(lp609
S'airfoil'
p610
aa(lp611
S'airfoil'
p612
aasg333
g334
sg413
g414
saa(lp613
g64
a(lp614
F4.3812669132190405e-05
aF-9.9849017127350291e-05
aF-0.0001878225649274985
aF-0.00022626096258069697
aF-0.00020660651819518253
aF-0.00011867905017249372
aF3.9741267450456487e-05
aF0.00025579242714274052
aF0.00049920840814441758
aF0.0007277845147281004
aF0.00090165924135142091
aF0.001002270502968271
aF0.0010454868521394289
aF0.0010766643441649489
aF0.0011457607774113833
aF0.0012824725928070172
aF0.0015043895877960773
aF0.0018736166904691324
aF0.002659219042114103
aF-0.0023758859400622619
aF-0.0041989088923660069
aF-0.005148468777880031
aF-0.0053047449458283333
aF-0.0048117493942713991
aF-0.0038640407168893959
aF-0.0026728382133730686
aF-0.001434128180694771
aF-0.00030885727776264915
aF0.00058304698300619016
aF0.0011583164314281167
aF0.0013648779900563258
aF0.0011874983028919448
aF0.00067324887828726929
aF-3.4549871642194705e-05
aF-0.00070856540154615448
aF-0.0011764727268253764
aF-0.0015279924509791637
aF-0.0021585452968139484
aaa(lp615
S'DV_VALUE_OLD'
p616
a(lp617
F0
aF0
aF0
aF0
aF0
aF0
aF0
aF0
aF0
aF0
aF0
aF0
aF0
aF0
aF0
aF0
aF0
aF0
aF0
aF0
aF0
aF0
aF0
aF0
aF0
aF0
aF0
aF0
aF0
aF0
aF0
aF0
aF0
aF0
aF0
aF0
aF0
aF0
aaa(lp618
S'OPT_COMBINE_OBJECTIVE'
p619
aS'NO'
p620
aa(lp621
S'VALUE_OBJFUNC_FILENAME'
p622
aS'of_eval.dat'
p623
aa(lp624
S'NUMBER_PART'
p625
aI1
aa(lp626
S'CONSOLE'
p627
aS'CONCISE'
p628
aa(lp629
S'GRADIENT_METHOD'
p630
aS'CONTINUOUS_ADJOINT'
p631
aa(lp632
S'OBJECTIVE_WEIGHT'
p633
aS'1.0'
p634
aatRp635
(dp636
g20
I01
sS'_filename'
p637
S'inv_NACA0012_basic.cfg'
p638
sbsS'grads'
p639
g58
sb.